

Microchip MPLAB XC8 Assembler V2.10 build 88905656 
                                                                                               Thu Feb 27 12:10:44 2020

Microchip MPLAB XC8 C Compiler v2.10 (Free license) build 20190730164152 Og1 
     1                           	processor	16F887
     2                           	opt	pw 120
     3                           	opt	flic
     4                           	psect	strings,global,class=STRING,delta=2
     5                           	psect	cinit,global,class=CODE,merge=1,delta=2
     6                           	psect	bssBANK0,global,class=BANK0,space=1,delta=1
     7                           	psect	bssBANK1,global,class=BANK1,space=1,delta=1
     8                           	psect	cstackCOMMON,global,class=COMMON,space=1,delta=1
     9                           	psect	cstackBANK0,global,class=BANK0,space=1,delta=1
    10                           	psect	maintext,global,class=CODE,split=1,delta=2
    11                           	psect	text1,local,class=CODE,merge=1,delta=2
    12                           	psect	text2,local,class=CODE,merge=1,delta=2
    13                           	psect	text3,local,class=CODE,merge=1,delta=2
    14                           	psect	text4,local,class=CODE,merge=1,delta=2
    15                           	psect	text5,local,class=CODE,merge=1,delta=2,group=1
    16                           	psect	text6,local,class=CODE,merge=1,delta=2,group=1
    17                           	psect	text7,local,class=CODE,merge=1,delta=2,group=1
    18                           	psect	text8,local,class=CODE,merge=1,delta=2,group=1
    19                           	psect	text9,local,class=CODE,merge=1,delta=2,group=1
    20                           	psect	text10,local,class=CODE,merge=1,delta=2,group=1
    21                           	psect	text11,local,class=CODE,merge=1,delta=2,group=1
    22                           	psect	text12,local,class=CODE,merge=1,delta=2,group=1
    23                           	psect	text13,local,class=CODE,merge=1,delta=2
    24                           	psect	text14,local,class=CODE,merge=1,delta=2
    25                           	psect	text15,local,class=CODE,merge=1,delta=2,group=1
    26                           	psect	text16,local,class=CODE,merge=1,delta=2,group=1
    27                           	psect	text17,local,class=CODE,merge=1,delta=2
    28                           	psect	text18,local,class=CODE,merge=1,delta=2
    29                           	psect	text19,local,class=CODE,merge=1,delta=2
    30                           	psect	text20,local,class=CODE,merge=1,delta=2
    31                           	psect	text21,local,class=CODE,merge=1,delta=2
    32                           	psect	text22,local,class=CODE,merge=1,delta=2
    33                           	psect	text23,local,class=CODE,merge=1,delta=2
    34                           	psect	text24,local,class=CODE,merge=1,delta=2
    35                           	psect	text25,local,class=CODE,merge=1,delta=2
    36                           	dabs	1,0x7E,2
    37  0000                     
    38                           ; Version 2.10
    39                           ; Generated 31/07/2019 GMT
    40                           ; 
    41                           ; Copyright © 2019, Microchip Technology Inc. and its subsidiaries ("Microchip")
    42                           ; All rights reserved.
    43                           ; 
    44                           ; This software is developed by Microchip Technology Inc. and its subsidiaries ("Microch
      +                          ip").
    45                           ; 
    46                           ; Redistribution and use in source and binary forms, with or without modification, are
    47                           ; permitted provided that the following conditions are met:
    48                           ; 
    49                           ;     1. Redistributions of source code must retain the above copyright notice, this lis
      +                          t of
    50                           ;        conditions and the following disclaimer.
    51                           ; 
    52                           ;     2. Redistributions in binary form must reproduce the above copyright notice, this 
      +                          list
    53                           ;        of conditions and the following disclaimer in the documentation and/or other
    54                           ;        materials provided with the distribution.
    55                           ; 
    56                           ;     3. Microchip's name may not be used to endorse or promote products derived from th
      +                          is
    57                           ;        software without specific prior written permission.
    58                           ; 
    59                           ; THIS SOFTWARE IS PROVIDED BY MICROCHIP "AS IS" AND ANY EXPRESS OR IMPLIED WARRANTIES,
    60                           ; INCLUDING, BUT NOT LIMITED TO, THE IMPLIED WARRANTIES OF MERCHANTABILITY AND FITNESS F
      +                          OR
    61                           ; PURPOSE ARE DISCLAIMED.  IN NO EVENT SHALL MICROCHIP BE LIABLE FOR ANY DIRECT, INDIREC
      +                          T,
    62                           ; INCIDENTAL, SPECIAL, EXEMPLARY, OR CONSEQUENTIAL DAMAGES (INCLUDING BUT NOT LIMITED TO
    63                           ; PROCUREMENT OF SUBSTITUTE GOODS OR SERVICES; LOSS OF USE, DATA OR PROFITS; OR BUSINESS
    64                           ; INTERRUPTION) HOWSOEVER CAUSED AND ON ANY THEORY OF LIABILITY, WHETHER IN CONTRACT, ST
      +                          RICT
    65                           ; LIABILITY, OR TORT (INCLUDING NEGLIGENCE OR OTHERWISE) ARISING IN ANY WAY OUT OF THE U
      +                          SE OF
    66                           ; THIS SOFTWARE, EVEN IF ADVISED OF THE POSSIBILITY OF SUCH DAMAGE.
    67                           ; 
    68                           ; 
    69                           ; Code-generator required, PIC16F887 Definitions
    70                           ; 
    71                           ; SFR Addresses
    72  0000                     	;# 
    73  0001                     	;# 
    74  0002                     	;# 
    75  0003                     	;# 
    76  0004                     	;# 
    77  0005                     	;# 
    78  0006                     	;# 
    79  0007                     	;# 
    80  0008                     	;# 
    81  0009                     	;# 
    82  000A                     	;# 
    83  000B                     	;# 
    84  000C                     	;# 
    85  000D                     	;# 
    86  000E                     	;# 
    87  000E                     	;# 
    88  000F                     	;# 
    89  0010                     	;# 
    90  0011                     	;# 
    91  0012                     	;# 
    92  0013                     	;# 
    93  0014                     	;# 
    94  0015                     	;# 
    95  0015                     	;# 
    96  0016                     	;# 
    97  0017                     	;# 
    98  0018                     	;# 
    99  0019                     	;# 
   100  001A                     	;# 
   101  001B                     	;# 
   102  001B                     	;# 
   103  001C                     	;# 
   104  001D                     	;# 
   105  001E                     	;# 
   106  001F                     	;# 
   107  0081                     	;# 
   108  0085                     	;# 
   109  0086                     	;# 
   110  0087                     	;# 
   111  0088                     	;# 
   112  0089                     	;# 
   113  008C                     	;# 
   114  008D                     	;# 
   115  008E                     	;# 
   116  008F                     	;# 
   117  0090                     	;# 
   118  0091                     	;# 
   119  0092                     	;# 
   120  0093                     	;# 
   121  0093                     	;# 
   122  0093                     	;# 
   123  0094                     	;# 
   124  0095                     	;# 
   125  0096                     	;# 
   126  0097                     	;# 
   127  0098                     	;# 
   128  0099                     	;# 
   129  009A                     	;# 
   130  009B                     	;# 
   131  009C                     	;# 
   132  009D                     	;# 
   133  009E                     	;# 
   134  009F                     	;# 
   135  0105                     	;# 
   136  0107                     	;# 
   137  0108                     	;# 
   138  0109                     	;# 
   139  010C                     	;# 
   140  010C                     	;# 
   141  010D                     	;# 
   142  010E                     	;# 
   143  010F                     	;# 
   144  0185                     	;# 
   145  0187                     	;# 
   146  0188                     	;# 
   147  0189                     	;# 
   148  018C                     	;# 
   149  018D                     	;# 
   150  0000                     	;# 
   151  0001                     	;# 
   152  0002                     	;# 
   153  0003                     	;# 
   154  0004                     	;# 
   155  0005                     	;# 
   156  0006                     	;# 
   157  0007                     	;# 
   158  0008                     	;# 
   159  0009                     	;# 
   160  000A                     	;# 
   161  000B                     	;# 
   162  000C                     	;# 
   163  000D                     	;# 
   164  000E                     	;# 
   165  000E                     	;# 
   166  000F                     	;# 
   167  0010                     	;# 
   168  0011                     	;# 
   169  0012                     	;# 
   170  0013                     	;# 
   171  0014                     	;# 
   172  0015                     	;# 
   173  0015                     	;# 
   174  0016                     	;# 
   175  0017                     	;# 
   176  0018                     	;# 
   177  0019                     	;# 
   178  001A                     	;# 
   179  001B                     	;# 
   180  001B                     	;# 
   181  001C                     	;# 
   182  001D                     	;# 
   183  001E                     	;# 
   184  001F                     	;# 
   185  0081                     	;# 
   186  0085                     	;# 
   187  0086                     	;# 
   188  0087                     	;# 
   189  0088                     	;# 
   190  0089                     	;# 
   191  008C                     	;# 
   192  008D                     	;# 
   193  008E                     	;# 
   194  008F                     	;# 
   195  0090                     	;# 
   196  0091                     	;# 
   197  0092                     	;# 
   198  0093                     	;# 
   199  0093                     	;# 
   200  0093                     	;# 
   201  0094                     	;# 
   202  0095                     	;# 
   203  0096                     	;# 
   204  0097                     	;# 
   205  0098                     	;# 
   206  0099                     	;# 
   207  009A                     	;# 
   208  009B                     	;# 
   209  009C                     	;# 
   210  009D                     	;# 
   211  009E                     	;# 
   212  009F                     	;# 
   213  0105                     	;# 
   214  0107                     	;# 
   215  0108                     	;# 
   216  0109                     	;# 
   217  010C                     	;# 
   218  010C                     	;# 
   219  010D                     	;# 
   220  010E                     	;# 
   221  010F                     	;# 
   222  0185                     	;# 
   223  0187                     	;# 
   224  0188                     	;# 
   225  0189                     	;# 
   226  018C                     	;# 
   227  018D                     	;# 
   228  0000                     	;# 
   229  0001                     	;# 
   230  0002                     	;# 
   231  0003                     	;# 
   232  0004                     	;# 
   233  0005                     	;# 
   234  0006                     	;# 
   235  0007                     	;# 
   236  0008                     	;# 
   237  0009                     	;# 
   238  000A                     	;# 
   239  000B                     	;# 
   240  000C                     	;# 
   241  000D                     	;# 
   242  000E                     	;# 
   243  000E                     	;# 
   244  000F                     	;# 
   245  0010                     	;# 
   246  0011                     	;# 
   247  0012                     	;# 
   248  0013                     	;# 
   249  0014                     	;# 
   250  0015                     	;# 
   251  0015                     	;# 
   252  0016                     	;# 
   253  0017                     	;# 
   254  0018                     	;# 
   255  0019                     	;# 
   256  001A                     	;# 
   257  001B                     	;# 
   258  001B                     	;# 
   259  001C                     	;# 
   260  001D                     	;# 
   261  001E                     	;# 
   262  001F                     	;# 
   263  0081                     	;# 
   264  0085                     	;# 
   265  0086                     	;# 
   266  0087                     	;# 
   267  0088                     	;# 
   268  0089                     	;# 
   269  008C                     	;# 
   270  008D                     	;# 
   271  008E                     	;# 
   272  008F                     	;# 
   273  0090                     	;# 
   274  0091                     	;# 
   275  0092                     	;# 
   276  0093                     	;# 
   277  0093                     	;# 
   278  0093                     	;# 
   279  0094                     	;# 
   280  0095                     	;# 
   281  0096                     	;# 
   282  0097                     	;# 
   283  0098                     	;# 
   284  0099                     	;# 
   285  009A                     	;# 
   286  009B                     	;# 
   287  009C                     	;# 
   288  009D                     	;# 
   289  009E                     	;# 
   290  009F                     	;# 
   291  0105                     	;# 
   292  0107                     	;# 
   293  0108                     	;# 
   294  0109                     	;# 
   295  010C                     	;# 
   296  010C                     	;# 
   297  010D                     	;# 
   298  010E                     	;# 
   299  010F                     	;# 
   300  0185                     	;# 
   301  0187                     	;# 
   302  0188                     	;# 
   303  0189                     	;# 
   304  018C                     	;# 
   305  018D                     	;# 
   306  0000                     	;# 
   307  0001                     	;# 
   308  0002                     	;# 
   309  0003                     	;# 
   310  0004                     	;# 
   311  0005                     	;# 
   312  0006                     	;# 
   313  0007                     	;# 
   314  0008                     	;# 
   315  0009                     	;# 
   316  000A                     	;# 
   317  000B                     	;# 
   318  000C                     	;# 
   319  000D                     	;# 
   320  000E                     	;# 
   321  000E                     	;# 
   322  000F                     	;# 
   323  0010                     	;# 
   324  0011                     	;# 
   325  0012                     	;# 
   326  0013                     	;# 
   327  0014                     	;# 
   328  0015                     	;# 
   329  0015                     	;# 
   330  0016                     	;# 
   331  0017                     	;# 
   332  0018                     	;# 
   333  0019                     	;# 
   334  001A                     	;# 
   335  001B                     	;# 
   336  001B                     	;# 
   337  001C                     	;# 
   338  001D                     	;# 
   339  001E                     	;# 
   340  001F                     	;# 
   341  0081                     	;# 
   342  0085                     	;# 
   343  0086                     	;# 
   344  0087                     	;# 
   345  0088                     	;# 
   346  0089                     	;# 
   347  008C                     	;# 
   348  008D                     	;# 
   349  008E                     	;# 
   350  008F                     	;# 
   351  0090                     	;# 
   352  0091                     	;# 
   353  0092                     	;# 
   354  0093                     	;# 
   355  0093                     	;# 
   356  0093                     	;# 
   357  0094                     	;# 
   358  0095                     	;# 
   359  0096                     	;# 
   360  0097                     	;# 
   361  0098                     	;# 
   362  0099                     	;# 
   363  009A                     	;# 
   364  009B                     	;# 
   365  009C                     	;# 
   366  009D                     	;# 
   367  009E                     	;# 
   368  009F                     	;# 
   369  0105                     	;# 
   370  0107                     	;# 
   371  0108                     	;# 
   372  0109                     	;# 
   373  010C                     	;# 
   374  010C                     	;# 
   375  010D                     	;# 
   376  010E                     	;# 
   377  010F                     	;# 
   378  0185                     	;# 
   379  0187                     	;# 
   380  0188                     	;# 
   381  0189                     	;# 
   382  018C                     	;# 
   383  018D                     	;# 
   384                           
   385                           	psect	strings
   386  0800                     __pstrings:	
   387  0800                     stringtab:	
   388  0800                     __stringtab:	
   389                           
   390                           ;	String table - string pointers are 1 byte each
   391  0800  1BFF               	btfsc	btemp+1,7
   392  0801  280A               	ljmp	stringcode
   393  0802  1383               	bcf	3,7
   394  0803  187F               	btfsc	btemp+1,0
   395  0804  1783               	bsf	3,7
   396  0805  0800               	movf	0,w
   397  0806  0A84               	incf	4,f
   398  0807  1903               	skipnz
   399  0808  0AFF               	incf	btemp+1,f
   400  0809  0008               	return
   401  080A                     stringcode:	
   402  080A                     stringdir:	
   403  080A  3008               	movlw	high stringdir
   404  080B  008A               	movwf	10
   405  080C  0804               	movf	4,w
   406  080D  0A84               	incf	4,f
   407  080E  0782               	addwf	2,f
   408  080F                     __stringbase:	
   409  080F  3400               	retlw	0
   410  0810                     __end_of__stringtab:	
   411  0810                     _dpowers:	
   412  0810  3401               	retlw	1
   413  0811  3400               	retlw	0
   414  0812  340A               	retlw	10
   415  0813  3400               	retlw	0
   416  0814  3464               	retlw	100
   417  0815  3400               	retlw	0
   418  0816  34E8               	retlw	232
   419  0817  3403               	retlw	3
   420  0818  3410               	retlw	16
   421  0819  3427               	retlw	39
   422  081A                     __end_of_dpowers:	
   423  0006                     _PORTBbits	set	6
   424  0013                     _SSPBUF	set	19
   425  0014                     _SSPCON	set	20
   426  0008                     _PORTD	set	8
   427  0005                     _PORTA	set	5
   428  0006                     _PORTB	set	6
   429  0063                     _SSPIF	set	99
   430  005E                     _PEIE	set	94
   431  005F                     _GIE	set	95
   432  0091                     _SSPCON2bits	set	145
   433  0087                     _TRISCbits	set	135
   434  0094                     _SSPSTAT	set	148
   435  0093                     _SSPADD	set	147
   436  0091                     _SSPCON2	set	145
   437  0088                     _TRISD	set	136
   438  0086                     _TRISB	set	134
   439  0085                     _TRISA	set	133
   440  0463                     _SSPIE	set	1123
   441  043C                     _TRISC4	set	1084
   442  043B                     _TRISC3	set	1083
   443  0189                     _ANSELH	set	393
   444  0188                     _ANSEL	set	392
   445  081A                     STR_5:	
   446  081A  3425               	retlw	37	;'%'
   447  081B  3464               	retlw	100	;'d'
   448  081C  3400               	retlw	0
   449  081D                     STR_1:	
   450  081D  3453               	retlw	83	;'S'
   451  081E  3431               	retlw	49	;'1'
   452  081F  3400               	retlw	0
   453  0820                     STR_2:	
   454  0820  3453               	retlw	83	;'S'
   455  0821  3432               	retlw	50	;'2'
   456  0822  3400               	retlw	0
   457  0823                     STR_3:	
   458  0823  3453               	retlw	83	;'S'
   459  0824  3433               	retlw	51	;'3'
   460  0825  3400               	retlw	0
   461  0826                     STR_4:	
   462  0826  3430               	retlw	48	;'0'
   463  0827  3400               	retlw	0
   464                           
   465                           ; #config settings
   466  0000                     
   467                           	psect	cinit
   468  07E6                     start_initialization:	
   469  07E6                     __initialization:	
   470                           
   471                           ; Clear objects allocated to BANK0
   472  07E6  1283               	bcf	3,5	;RP0=0, select bank0
   473  07E7  1303               	bcf	3,6	;RP1=0, select bank0
   474  07E8  01E9               	clrf	__pbssBANK0& (0+127)
   475  07E9  01EA               	clrf	(__pbssBANK0+1)& (0+127)
   476  07EA  01EB               	clrf	(__pbssBANK0+2)& (0+127)
   477  07EB  01EC               	clrf	(__pbssBANK0+3)& (0+127)
   478  07EC  01ED               	clrf	(__pbssBANK0+4)& (0+127)
   479  07ED  01EE               	clrf	(__pbssBANK0+5)& (0+127)
   480  07EE  01EF               	clrf	(__pbssBANK0+6)& (0+127)
   481                           
   482                           ; Clear objects allocated to BANK1
   483  07EF  1683               	bsf	3,5	;RP0=1, select bank1
   484  07F0  1303               	bcf	3,6	;RP1=0, select bank1
   485  07F1  01A0               	clrf	__pbssBANK1& (0+127)
   486  07F2  01A1               	clrf	(__pbssBANK1+1)& (0+127)
   487  07F3  01A2               	clrf	(__pbssBANK1+2)& (0+127)
   488  07F4  01A3               	clrf	(__pbssBANK1+3)& (0+127)
   489  07F5  01A4               	clrf	(__pbssBANK1+4)& (0+127)
   490  07F6  01A5               	clrf	(__pbssBANK1+5)& (0+127)
   491  07F7  01A6               	clrf	(__pbssBANK1+6)& (0+127)
   492  07F8  01A7               	clrf	(__pbssBANK1+7)& (0+127)
   493  07F9  01A8               	clrf	(__pbssBANK1+8)& (0+127)
   494  07FA  01A9               	clrf	(__pbssBANK1+9)& (0+127)
   495  07FB  01AA               	clrf	(__pbssBANK1+10)& (0+127)
   496  07FC                     end_of_initialization:	
   497                           ;End of C runtime variable initialization code
   498                           
   499  07FC                     __end_of__initialization:	
   500  07FC  0183               	clrf	3
   501  07FD  120A  118A  2932   	ljmp	_main	;jump to C main() function
   502                           
   503                           	psect	bssBANK0
   504  0069                     __pbssBANK0:	
   505  0069                     _d1_1:	
   506  0069                     	ds	1
   507  006A                     _dd1:	
   508  006A                     	ds	1
   509  006B                     _od1:	
   510  006B                     	ds	1
   511  006C                     _d3_1:	
   512  006C                     	ds	1
   513  006D                     _dd3:	
   514  006D                     	ds	1
   515  006E                     _od3:	
   516  006E                     	ds	1
   517  006F                     _d2:	
   518  006F                     	ds	1
   519                           
   520                           	psect	bssBANK1
   521  00A0                     __pbssBANK1:	
   522  00A0                     _d3:	
   523  00A0                     	ds	4
   524  00A4                     _d1:	
   525  00A4                     	ds	4
   526  00A8                     _int1:	
   527  00A8                     	ds	1
   528  00A9                     _dent1:	
   529  00A9                     	ds	1
   530  00AA                     _v1:	
   531  00AA                     	ds	1
   532                           
   533                           	psect	cstackCOMMON
   534  0070                     __pcstackCOMMON:	
   535  0070                     ?_setup:	
   536  0070                     ?_I2C_Master_Start:	
   537                           ; 1 bytes @ 0x0
   538                           
   539  0070                     ??_I2C_Master_Start:	
   540                           ; 1 bytes @ 0x0
   541                           
   542  0070                     ?_I2C_Master_Write:	
   543                           ; 1 bytes @ 0x0
   544                           
   545  0070                     ?_I2C_Master_Stop:	
   546                           ; 1 bytes @ 0x0
   547                           
   548  0070                     ??_I2C_Master_Stop:	
   549                           ; 1 bytes @ 0x0
   550                           
   551  0070                     ?_Lcd_Write_Int:	
   552                           ; 1 bytes @ 0x0
   553                           
   554  0070                     ?_Lcd_Write_Char:	
   555                           ; 1 bytes @ 0x0
   556                           
   557  0070                     ??_Lcd_Write_Char:	
   558                           ; 1 bytes @ 0x0
   559                           
   560  0070                     ?_initLCD:	
   561                           ; 1 bytes @ 0x0
   562                           
   563  0070                     ?_Lcd_Clear:	
   564                           ; 1 bytes @ 0x0
   565                           
   566  0070                     ?_Lcd_Cmd:	
   567                           ; 1 bytes @ 0x0
   568                           
   569  0070                     ??_Lcd_Cmd:	
   570                           ; 1 bytes @ 0x0
   571                           
   572  0070                     ?_main:	
   573                           ; 1 bytes @ 0x0
   574                           
   575  0070                     ?_I2C_Master_Wait:	
   576                           ; 1 bytes @ 0x0
   577                           
   578  0070                     ??_I2C_Master_Wait:	
   579                           ; 1 bytes @ 0x0
   580                           
   581  0070                     ?_I2C_Master_Read:	
   582                           ; 1 bytes @ 0x0
   583                           
   584  0070                     ?__Umul8_16:	
   585                           ; 2 bytes @ 0x0
   586                           
   587  0070                     ?___lwdiv:	
   588                           ; 2 bytes @ 0x0
   589                           
   590  0070                     ?___lldiv:	
   591                           ; 2 bytes @ 0x0
   592                           
   593  0070                     ?___fladd:	
   594                           ; 4 bytes @ 0x0
   595                           
   596  0070                     __Umul8_16@multiplicand:	
   597                           ; 4 bytes @ 0x0
   598                           
   599  0070                     I2C_Master_Write@d:	
   600                           ; 1 bytes @ 0x0
   601                           
   602  0070                     I2C_Master_Read@a:	
   603                           ; 2 bytes @ 0x0
   604                           
   605  0070                     ___lwdiv@divisor:	
   606                           ; 2 bytes @ 0x0
   607                           
   608  0070                     ___lldiv@divisor:	
   609                           ; 2 bytes @ 0x0
   610                           
   611  0070                     ___fladd@b:	
   612                           ; 4 bytes @ 0x0
   613                           
   614                           
   615                           ; 4 bytes @ 0x0
   616  0070                     	ds	2
   617  0072                     ??_I2C_Master_Write:	
   618  0072                     ??_I2C_Master_Read:	
   619                           ; 1 bytes @ 0x2
   620                           
   621  0072                     ??__Umul8_16:	
   622                           ; 1 bytes @ 0x2
   623                           
   624  0072                     Lcd_Cmd@command:	
   625                           ; 1 bytes @ 0x2
   626                           
   627  0072                     Lcd_Write_Char@var:	
   628                           ; 1 bytes @ 0x2
   629                           
   630  0072                     ___lwdiv@dividend:	
   631                           ; 1 bytes @ 0x2
   632                           
   633                           
   634                           ; 2 bytes @ 0x2
   635  0072                     	ds	1
   636  0073                     ?_Lcd_Set_Cursor:	
   637  0073                     ?_Lcd_Write_String:	
   638                           ; 1 bytes @ 0x3
   639                           
   640  0073                     ??_initLCD:	
   641                           ; 1 bytes @ 0x3
   642                           
   643  0073                     ??_Lcd_Clear:	
   644                           ; 1 bytes @ 0x3
   645                           
   646  0073                     Lcd_Set_Cursor@posy:	
   647                           ; 1 bytes @ 0x3
   648                           
   649  0073                     Lcd_Write_String@var:	
   650                           ; 1 bytes @ 0x3
   651                           
   652                           
   653                           ; 2 bytes @ 0x3
   654  0073                     	ds	1
   655  0074                     ??_Lcd_Set_Cursor:	
   656  0074                     ??___lwdiv:	
   657                           ; 1 bytes @ 0x4
   658                           
   659  0074                     Lcd_Set_Cursor@posx:	
   660                           ; 1 bytes @ 0x4
   661                           
   662  0074                     I2C_Master_Read@temp:	
   663                           ; 1 bytes @ 0x4
   664                           
   665  0074                     __Umul8_16@product:	
   666                           ; 2 bytes @ 0x4
   667                           
   668  0074                     ___lldiv@dividend:	
   669                           ; 2 bytes @ 0x4
   670                           
   671  0074                     ___fladd@a:	
   672                           ; 4 bytes @ 0x4
   673                           
   674                           
   675                           ; 4 bytes @ 0x4
   676  0074                     	ds	1
   677  0075                     ??_Lcd_Write_String:	
   678  0075                     ___lwdiv@quotient:	
   679                           ; 1 bytes @ 0x5
   680                           
   681                           
   682                           ; 2 bytes @ 0x5
   683  0075                     	ds	1
   684  0076                     ?___xxtofl:	
   685  0076                     __Umul8_16@word_mpld:	
   686                           ; 4 bytes @ 0x6
   687                           
   688  0076                     ___xxtofl@val:	
   689                           ; 2 bytes @ 0x6
   690                           
   691                           
   692                           ; 4 bytes @ 0x6
   693  0076                     	ds	1
   694  0077                     ___lwdiv@counter:	
   695                           
   696                           ; 1 bytes @ 0x7
   697  0077                     	ds	1
   698  0078                     ??___lldiv:	
   699  0078                     ?___lwmod:	
   700                           ; 1 bytes @ 0x8
   701                           
   702  0078                     ___fladd@signs:	
   703                           ; 2 bytes @ 0x8
   704                           
   705  0078                     __Umul8_16@multiplier:	
   706                           ; 1 bytes @ 0x8
   707                           
   708  0078                     Lcd_Write_String@i:	
   709                           ; 1 bytes @ 0x8
   710                           
   711  0078                     ___lwmod@divisor:	
   712                           ; 2 bytes @ 0x8
   713                           
   714                           
   715                           ; 2 bytes @ 0x8
   716  0078                     	ds	1
   717  0079                     ___fladd@aexp:	
   718  0079                     ___lldiv@quotient:	
   719                           ; 1 bytes @ 0x9
   720                           
   721                           
   722                           ; 4 bytes @ 0x9
   723  0079                     	ds	1
   724  007A                     ??___xxtofl:	
   725  007A                     ___fladd@bexp:	
   726                           ; 1 bytes @ 0xA
   727                           
   728  007A                     ___lwmod@dividend:	
   729                           ; 1 bytes @ 0xA
   730                           
   731                           
   732                           ; 2 bytes @ 0xA
   733  007A                     	ds	1
   734  007B                     ___fladd@grs:	
   735                           
   736                           ; 1 bytes @ 0xB
   737  007B                     	ds	1
   738  007C                     ??___lwmod:	
   739                           
   740                           ; 1 bytes @ 0xC
   741  007C                     	ds	1
   742  007D                     ___lldiv@counter:	
   743  007D                     ___lwmod@counter:	
   744                           ; 1 bytes @ 0xD
   745                           
   746                           
   747                           ; 1 bytes @ 0xD
   748  007D                     	ds	1
   749  007E                     ??_setup:	
   750  007E                     ??___flsub:	
   751                           ; 1 bytes @ 0xE
   752                           
   753                           
   754                           	psect	cstackBANK0
   755  0020                     __pcstackBANK0:	
   756                           ; 1 bytes @ 0xE
   757                           
   758  0020                     ?_I2C_Master_Init:	
   759  0020                     ??___fladd:	
   760                           ; 1 bytes @ 0x0
   761                           
   762  0020                     ?_sprintf:	
   763                           ; 1 bytes @ 0x0
   764                           
   765  0020                     sprintf@f:	
   766                           ; 2 bytes @ 0x0
   767                           
   768  0020                     ___xxtofl@sign:	
   769                           ; 1 bytes @ 0x0
   770                           
   771  0020                     I2C_Master_Init@c:	
   772                           ; 1 bytes @ 0x0
   773                           
   774                           
   775                           ; 4 bytes @ 0x0
   776  0020                     	ds	1
   777  0021                     ___xxtofl@exp:	
   778                           
   779                           ; 1 bytes @ 0x1
   780  0021                     	ds	1
   781  0022                     ___xxtofl@arg:	
   782                           
   783                           ; 4 bytes @ 0x2
   784  0022                     	ds	1
   785  0023                     ??_sprintf:	
   786                           
   787                           ; 1 bytes @ 0x3
   788  0023                     	ds	1
   789  0024                     ??_I2C_Master_Init:	
   790                           
   791                           ; 1 bytes @ 0x4
   792  0024                     	ds	2
   793  0026                     sprintf@ap:	
   794                           
   795                           ; 1 bytes @ 0x6
   796  0026                     	ds	1
   797  0027                     sprintf@flag:	
   798                           
   799                           ; 1 bytes @ 0x7
   800  0027                     	ds	1
   801  0028                     ?___flsub:	
   802  0028                     sprintf@prec:	
   803                           ; 4 bytes @ 0x8
   804                           
   805  0028                     ___flsub@a:	
   806                           ; 1 bytes @ 0x8
   807                           
   808                           
   809                           ; 4 bytes @ 0x8
   810  0028                     	ds	1
   811  0029                     sprintf@val:	
   812                           
   813                           ; 2 bytes @ 0x9
   814  0029                     	ds	2
   815  002B                     sprintf@sp:	
   816                           
   817                           ; 1 bytes @ 0xB
   818  002B                     	ds	1
   819  002C                     sprintf@c:	
   820  002C                     ___flsub@b:	
   821                           ; 1 bytes @ 0xC
   822                           
   823                           
   824                           ; 4 bytes @ 0xC
   825  002C                     	ds	1
   826  002D                     ??_Lcd_Write_Int:	
   827                           
   828                           ; 1 bytes @ 0xD
   829  002D                     	ds	3
   830  0030                     ?___flmul:	
   831  0030                     Lcd_Write_Int@buffer:	
   832                           ; 4 bytes @ 0x10
   833                           
   834  0030                     ___flmul@b:	
   835                           ; 4 bytes @ 0x10
   836                           
   837                           
   838                           ; 4 bytes @ 0x10
   839  0030                     	ds	4
   840  0034                     Lcd_Write_Int@numero:	
   841  0034                     ___flmul@a:	
   842                           ; 1 bytes @ 0x14
   843                           
   844                           
   845                           ; 4 bytes @ 0x14
   846  0034                     	ds	4
   847  0038                     ??___flmul:	
   848                           
   849                           ; 1 bytes @ 0x18
   850  0038                     	ds	5
   851  003D                     ___flmul@sign:	
   852                           
   853                           ; 1 bytes @ 0x1D
   854  003D                     	ds	1
   855  003E                     ___flmul@grs:	
   856                           
   857                           ; 4 bytes @ 0x1E
   858  003E                     	ds	4
   859  0042                     ___flmul@aexp:	
   860                           
   861                           ; 1 bytes @ 0x22
   862  0042                     	ds	1
   863  0043                     ___flmul@bexp:	
   864                           
   865                           ; 1 bytes @ 0x23
   866  0043                     	ds	1
   867  0044                     ___flmul@prod:	
   868                           
   869                           ; 4 bytes @ 0x24
   870  0044                     	ds	4
   871  0048                     ___flmul@temp:	
   872                           
   873                           ; 2 bytes @ 0x28
   874  0048                     	ds	2
   875  004A                     ?___fltol:	
   876  004A                     ?___fldiv:	
   877                           ; 4 bytes @ 0x2A
   878                           
   879  004A                     ___fltol@f1:	
   880                           ; 4 bytes @ 0x2A
   881                           
   882  004A                     ___fldiv@a:	
   883                           ; 4 bytes @ 0x2A
   884                           
   885                           
   886                           ; 4 bytes @ 0x2A
   887  004A                     	ds	4
   888  004E                     ??___fltol:	
   889  004E                     ___fldiv@b:	
   890                           ; 1 bytes @ 0x2E
   891                           
   892                           
   893                           ; 4 bytes @ 0x2E
   894  004E                     	ds	4
   895  0052                     ??___fldiv:	
   896                           
   897                           ; 1 bytes @ 0x32
   898  0052                     	ds	1
   899  0053                     ___fltol@sign1:	
   900                           
   901                           ; 1 bytes @ 0x33
   902  0053                     	ds	1
   903  0054                     ___fltol@exp1:	
   904                           
   905                           ; 1 bytes @ 0x34
   906  0054                     	ds	3
   907  0057                     ___fldiv@rem:	
   908                           
   909                           ; 4 bytes @ 0x37
   910  0057                     	ds	4
   911  005B                     ___fldiv@sign:	
   912                           
   913                           ; 1 bytes @ 0x3B
   914  005B                     	ds	1
   915  005C                     ___fldiv@new_exp:	
   916                           
   917                           ; 2 bytes @ 0x3C
   918  005C                     	ds	2
   919  005E                     ___fldiv@grs:	
   920                           
   921                           ; 4 bytes @ 0x3E
   922  005E                     	ds	4
   923  0062                     ___fldiv@bexp:	
   924                           
   925                           ; 1 bytes @ 0x42
   926  0062                     	ds	1
   927  0063                     ___fldiv@aexp:	
   928                           
   929                           ; 1 bytes @ 0x43
   930  0063                     	ds	1
   931  0064                     ??_main:	
   932                           
   933                           ; 1 bytes @ 0x44
   934  0064                     	ds	5
   935                           
   936                           	psect	maintext
   937  0132                     __pmaintext:	
   938 ;;
   939 ;;Main: autosize = 0, tempsize = 5, incstack = 0, save=0
   940 ;;
   941 ;; *************** function _main *****************
   942 ;; Defined at:
   943 ;;		line 66 in file "main_M.c"
   944 ;; Parameters:    Size  Location     Type
   945 ;;		None
   946 ;; Auto vars:     Size  Location     Type
   947 ;;		None
   948 ;; Return value:  Size  Location     Type
   949 ;;                  1    wreg      void 
   950 ;; Registers used:
   951 ;;		wreg, fsr0l, fsr0h, status,2, status,0, btemp+1, pclath, cstack
   952 ;; Tracked objects:
   953 ;;		On entry : B00/0
   954 ;;		On exit  : 0/0
   955 ;;		Unchanged: 0/0
   956 ;; Data sizes:     COMMON   BANK0   BANK1   BANK3   BANK2
   957 ;;      Params:         0       0       0       0       0
   958 ;;      Locals:         0       0       0       0       0
   959 ;;      Temps:          0       5       0       0       0
   960 ;;      Totals:         0       5       0       0       0
   961 ;;Total ram usage:        5 bytes
   962 ;; Hardware stack levels required when called:    3
   963 ;; This function calls:
   964 ;;		_I2C_Master_Read
   965 ;;		_I2C_Master_Start
   966 ;;		_I2C_Master_Stop
   967 ;;		_I2C_Master_Write
   968 ;;		_Lcd_Set_Cursor
   969 ;;		_Lcd_Write_Char
   970 ;;		_Lcd_Write_Int
   971 ;;		_Lcd_Write_String
   972 ;;		___fldiv
   973 ;;		___flmul
   974 ;;		___flsub
   975 ;;		___fltol
   976 ;;		___xxtofl
   977 ;;		_setup
   978 ;; This function is called by:
   979 ;;		Startup code after reset
   980 ;; This function uses a non-reentrant model
   981 ;;
   982                           
   983                           
   984                           ;psect for function _main
   985  0132                     _main:	
   986  0132                     l2544:	
   987                           ;incstack = 0
   988                           ; Regs used in _main: [wreg-fsr0h+status,2+status,0+btemp+1+pclath+cstack]
   989                           
   990                           
   991                           ;main_M.c: 67:     setup();
   992  0132  120A  158A  2094  120A  118A  	fcall	_setup
   993                           
   994                           ;main_M.c: 69:     Lcd_Set_Cursor(1,1);
   995  0137  01F3               	clrf	Lcd_Set_Cursor@posy
   996  0138  0AF3               	incf	Lcd_Set_Cursor@posy,f
   997  0139  3001               	movlw	1
   998  013A  160A  118A  27E5  120A  118A  	fcall	_Lcd_Set_Cursor
   999  013F                     l2546:	
  1000                           
  1001                           ;main_M.c: 70:     Lcd_Write_String ("S1");
  1002  013F  300E               	movlw	(low ((STR_1-__stringbase)| (0+32768)))& (0+255)
  1003  0140  00F3               	movwf	Lcd_Write_String@var
  1004  0141  3080               	movlw	128
  1005  0142  00F4               	movwf	Lcd_Write_String@var+1
  1006  0143  120A  158A  215C  120A  118A  	fcall	_Lcd_Write_String
  1007  0148                     l2548:	
  1008                           
  1009                           ;main_M.c: 71:     Lcd_Set_Cursor(7,1);
  1010  0148  01F3               	clrf	Lcd_Set_Cursor@posy
  1011  0149  0AF3               	incf	Lcd_Set_Cursor@posy,f
  1012  014A  3007               	movlw	7
  1013  014B  160A  118A  27E5  120A  118A  	fcall	_Lcd_Set_Cursor
  1014                           
  1015                           ;main_M.c: 72:     Lcd_Write_String ("S2");
  1016  0150  3011               	movlw	(low ((STR_2-__stringbase)| (0+32768)))& (0+255)
  1017  0151  00F3               	movwf	Lcd_Write_String@var
  1018  0152  3080               	movlw	128
  1019  0153  00F4               	movwf	Lcd_Write_String@var+1
  1020  0154  120A  158A  215C  120A  118A  	fcall	_Lcd_Write_String
  1021  0159                     l2550:	
  1022                           
  1023                           ;main_M.c: 73:     Lcd_Set_Cursor(13,1);
  1024  0159  01F3               	clrf	Lcd_Set_Cursor@posy
  1025  015A  0AF3               	incf	Lcd_Set_Cursor@posy,f
  1026  015B  300D               	movlw	13
  1027  015C  160A  118A  27E5  120A  118A  	fcall	_Lcd_Set_Cursor
  1028  0161                     l2552:	
  1029                           
  1030                           ;main_M.c: 74:     Lcd_Write_String ("S3");
  1031  0161  3014               	movlw	(low ((STR_3-__stringbase)| (0+32768)))& (0+255)
  1032  0162  00F3               	movwf	Lcd_Write_String@var
  1033  0163  3080               	movlw	128
  1034  0164  00F4               	movwf	Lcd_Write_String@var+1
  1035  0165  120A  158A  215C  120A  118A  	fcall	_Lcd_Write_String
  1036  016A                     l71:	
  1037                           ;main_M.c: 75:     while(1){
  1038                           
  1039                           
  1040                           ;main_M.c: 77:         I2C_Master_Start();
  1041  016A  160A  118A  2794  120A  118A  	fcall	_I2C_Master_Start
  1042                           
  1043                           ;main_M.c: 78:         I2C_Master_Write(0x51);
  1044  016F  3051               	movlw	81
  1045  0170  00F0               	movwf	I2C_Master_Write@d
  1046  0171  3000               	movlw	0
  1047  0172  00F1               	movwf	I2C_Master_Write@d+1
  1048  0173  160A  118A  27A6  120A  118A  	fcall	_I2C_Master_Write
  1049                           
  1050                           ;main_M.c: 79:         d3 = I2C_Master_Read(0);
  1051  0178  3000               	movlw	0
  1052  0179  00F0               	movwf	I2C_Master_Read@a
  1053  017A  00F1               	movwf	I2C_Master_Read@a+1
  1054  017B  120A  158A  20BC  120A  118A  	fcall	_I2C_Master_Read
  1055  0180  0870               	movf	?_I2C_Master_Read,w
  1056  0181  1283               	bcf	3,5	;RP0=0, select bank0
  1057  0182  1303               	bcf	3,6	;RP1=0, select bank0
  1058  0183  00E4               	movwf	??_main
  1059  0184  0871               	movf	?_I2C_Master_Read+1,w
  1060  0185  00E5               	movwf	??_main+1
  1061  0186  01E6               	clrf	??_main+2
  1062  0187  01E7               	clrf	??_main+3
  1063  0188  0867               	movf	??_main+3,w
  1064  0189  00F9               	movwf	___xxtofl@val+3
  1065  018A  0866               	movf	??_main+2,w
  1066  018B  00F8               	movwf	___xxtofl@val+2
  1067  018C  0865               	movf	??_main+1,w
  1068  018D  00F7               	movwf	___xxtofl@val+1
  1069  018E  0864               	movf	??_main,w
  1070  018F  00F6               	movwf	___xxtofl@val
  1071  0190  3000               	movlw	0
  1072  0191  120A  158A  22CF  120A  118A  	fcall	___xxtofl
  1073  0196  0879               	movf	?___xxtofl+3,w
  1074  0197  1683               	bsf	3,5	;RP0=1, select bank1
  1075  0198  1303               	bcf	3,6	;RP1=0, select bank1
  1076  0199  00A3               	movwf	(_d3+3)^(0+128)
  1077  019A  0878               	movf	?___xxtofl+2,w
  1078  019B  00A2               	movwf	(_d3+2)^(0+128)
  1079  019C  0877               	movf	?___xxtofl+1,w
  1080  019D  00A1               	movwf	(_d3+1)^(0+128)
  1081  019E  0876               	movf	?___xxtofl,w
  1082  019F  00A0               	movwf	_d3^(0+128)
  1083                           
  1084                           ;main_M.c: 80:         I2C_Master_Stop();
  1085  01A0  160A  118A  279D  120A  118A  	fcall	_I2C_Master_Stop
  1086  01A5                     l2554:	
  1087                           
  1088                           ;main_M.c: 81:         _delay((unsigned long)((10)*(4000000/4000.0)));
  1089  01A5  300D               	movlw	13
  1090  01A6  1283               	bcf	3,5	;RP0=0, select bank0
  1091  01A7  1303               	bcf	3,6	;RP1=0, select bank0
  1092  01A8  00E5               	movwf	??_main+1
  1093  01A9  30FB               	movlw	251
  1094  01AA  00E4               	movwf	??_main
  1095  01AB                     u3577:	
  1096  01AB  0BE4               	decfsz	??_main,f
  1097  01AC  29AB               	goto	u3577
  1098  01AD  0BE5               	decfsz	??_main+1,f
  1099  01AE  29AB               	goto	u3577
  1100  01AF                     l2556:	
  1101                           
  1102                           ;main_M.c: 84:         I2C_Master_Start();
  1103  01AF  160A  118A  2794  120A  118A  	fcall	_I2C_Master_Start
  1104  01B4                     l2558:	
  1105                           
  1106                           ;main_M.c: 85:         I2C_Master_Write(0x41);
  1107  01B4  3041               	movlw	65
  1108  01B5  00F0               	movwf	I2C_Master_Write@d
  1109  01B6  3000               	movlw	0
  1110  01B7  00F1               	movwf	I2C_Master_Write@d+1
  1111  01B8  160A  118A  27A6  120A  118A  	fcall	_I2C_Master_Write
  1112  01BD                     l2560:	
  1113                           
  1114                           ;main_M.c: 86:         d2 = I2C_Master_Read(0);
  1115  01BD  3000               	movlw	0
  1116  01BE  00F0               	movwf	I2C_Master_Read@a
  1117  01BF  00F1               	movwf	I2C_Master_Read@a+1
  1118  01C0  120A  158A  20BC  120A  118A  	fcall	_I2C_Master_Read
  1119  01C5  0870               	movf	?_I2C_Master_Read,w
  1120  01C6  1283               	bcf	3,5	;RP0=0, select bank0
  1121  01C7  1303               	bcf	3,6	;RP1=0, select bank0
  1122  01C8  00E4               	movwf	??_main
  1123  01C9  0864               	movf	??_main,w
  1124  01CA  00EF               	movwf	_d2
  1125  01CB                     l2562:	
  1126                           
  1127                           ;main_M.c: 87:         I2C_Master_Stop();
  1128  01CB  160A  118A  279D  120A  118A  	fcall	_I2C_Master_Stop
  1129  01D0                     l2564:	
  1130                           
  1131                           ;main_M.c: 88:         _delay((unsigned long)((10)*(4000000/4000.0)));
  1132  01D0  300D               	movlw	13
  1133  01D1  1283               	bcf	3,5	;RP0=0, select bank0
  1134  01D2  1303               	bcf	3,6	;RP1=0, select bank0
  1135  01D3  00E5               	movwf	??_main+1
  1136  01D4  30FB               	movlw	251
  1137  01D5  00E4               	movwf	??_main
  1138  01D6                     u3587:	
  1139  01D6  0BE4               	decfsz	??_main,f
  1140  01D7  29D6               	goto	u3587
  1141  01D8  0BE5               	decfsz	??_main+1,f
  1142  01D9  29D6               	goto	u3587
  1143                           
  1144                           ;main_M.c: 90:         I2C_Master_Start();
  1145  01DA  160A  118A  2794  120A  118A  	fcall	_I2C_Master_Start
  1146                           
  1147                           ;main_M.c: 91:         I2C_Master_Write(0x31);
  1148  01DF  3031               	movlw	49
  1149  01E0  00F0               	movwf	I2C_Master_Write@d
  1150  01E1  3000               	movlw	0
  1151  01E2  00F1               	movwf	I2C_Master_Write@d+1
  1152  01E3  160A  118A  27A6  120A  118A  	fcall	_I2C_Master_Write
  1153                           
  1154                           ;main_M.c: 92:         d1 = I2C_Master_Read(0);
  1155  01E8  3000               	movlw	0
  1156  01E9  00F0               	movwf	I2C_Master_Read@a
  1157  01EA  00F1               	movwf	I2C_Master_Read@a+1
  1158  01EB  120A  158A  20BC  120A  118A  	fcall	_I2C_Master_Read
  1159  01F0  0870               	movf	?_I2C_Master_Read,w
  1160  01F1  1283               	bcf	3,5	;RP0=0, select bank0
  1161  01F2  1303               	bcf	3,6	;RP1=0, select bank0
  1162  01F3  00E4               	movwf	??_main
  1163  01F4  0871               	movf	?_I2C_Master_Read+1,w
  1164  01F5  00E5               	movwf	??_main+1
  1165  01F6  01E6               	clrf	??_main+2
  1166  01F7  01E7               	clrf	??_main+3
  1167  01F8  0867               	movf	??_main+3,w
  1168  01F9  00F9               	movwf	___xxtofl@val+3
  1169  01FA  0866               	movf	??_main+2,w
  1170  01FB  00F8               	movwf	___xxtofl@val+2
  1171  01FC  0865               	movf	??_main+1,w
  1172  01FD  00F7               	movwf	___xxtofl@val+1
  1173  01FE  0864               	movf	??_main,w
  1174  01FF  00F6               	movwf	___xxtofl@val
  1175  0200  3000               	movlw	0
  1176  0201  120A  158A  22CF  120A  118A  	fcall	___xxtofl
  1177  0206  0879               	movf	?___xxtofl+3,w
  1178  0207  1683               	bsf	3,5	;RP0=1, select bank1
  1179  0208  1303               	bcf	3,6	;RP1=0, select bank1
  1180  0209  00A7               	movwf	(_d1+3)^(0+128)
  1181  020A  0878               	movf	?___xxtofl+2,w
  1182  020B  00A6               	movwf	(_d1+2)^(0+128)
  1183  020C  0877               	movf	?___xxtofl+1,w
  1184  020D  00A5               	movwf	(_d1+1)^(0+128)
  1185  020E  0876               	movf	?___xxtofl,w
  1186  020F  00A4               	movwf	_d1^(0+128)
  1187                           
  1188                           ;main_M.c: 93:         I2C_Master_Stop();
  1189  0210  160A  118A  279D  120A  118A  	fcall	_I2C_Master_Stop
  1190  0215                     l2566:	
  1191                           
  1192                           ;main_M.c: 94:         _delay((unsigned long)((10)*(4000000/4000.0)));
  1193  0215  300D               	movlw	13
  1194  0216  1283               	bcf	3,5	;RP0=0, select bank0
  1195  0217  1303               	bcf	3,6	;RP1=0, select bank0
  1196  0218  00E5               	movwf	??_main+1
  1197  0219  30FB               	movlw	251
  1198  021A  00E4               	movwf	??_main
  1199  021B                     u3597:	
  1200  021B  0BE4               	decfsz	??_main,f
  1201  021C  2A1B               	goto	u3597
  1202  021D  0BE5               	decfsz	??_main+1,f
  1203  021E  2A1B               	goto	u3597
  1204  021F                     l2568:	
  1205                           
  1206                           ;main_M.c: 97:         d3 = d3 * 5/255;
  1207  021F  3043               	movlw	67
  1208  0220  1283               	bcf	3,5	;RP0=0, select bank0
  1209  0221  1303               	bcf	3,6	;RP1=0, select bank0
  1210  0222  00CD               	movwf	___fldiv@a+3
  1211  0223  307F               	movlw	127
  1212  0224  00CC               	movwf	___fldiv@a+2
  1213  0225  3000               	movlw	0
  1214  0226  00CB               	movwf	___fldiv@a+1
  1215  0227  3000               	movlw	0
  1216  0228  00CA               	movwf	___fldiv@a
  1217  0229  3040               	movlw	64
  1218  022A  00B3               	movwf	___flmul@b+3
  1219  022B  30A0               	movlw	160
  1220  022C  00B2               	movwf	___flmul@b+2
  1221  022D  3000               	movlw	0
  1222  022E  00B1               	movwf	___flmul@b+1
  1223  022F  3000               	movlw	0
  1224  0230  00B0               	movwf	___flmul@b
  1225  0231  1683               	bsf	3,5	;RP0=1, select bank1
  1226  0232  1303               	bcf	3,6	;RP1=0, select bank1
  1227  0233  0823               	movf	(_d3+3)^(0+128),w
  1228  0234  1283               	bcf	3,5	;RP0=0, select bank0
  1229  0235  1303               	bcf	3,6	;RP1=0, select bank0
  1230  0236  00B7               	movwf	___flmul@a+3
  1231  0237  1683               	bsf	3,5	;RP0=1, select bank1
  1232  0238  1303               	bcf	3,6	;RP1=0, select bank1
  1233  0239  0822               	movf	(_d3+2)^(0+128),w
  1234  023A  1283               	bcf	3,5	;RP0=0, select bank0
  1235  023B  1303               	bcf	3,6	;RP1=0, select bank0
  1236  023C  00B6               	movwf	___flmul@a+2
  1237  023D  1683               	bsf	3,5	;RP0=1, select bank1
  1238  023E  1303               	bcf	3,6	;RP1=0, select bank1
  1239  023F  0821               	movf	(_d3+1)^(0+128),w
  1240  0240  1283               	bcf	3,5	;RP0=0, select bank0
  1241  0241  1303               	bcf	3,6	;RP1=0, select bank0
  1242  0242  00B5               	movwf	___flmul@a+1
  1243  0243  1683               	bsf	3,5	;RP0=1, select bank1
  1244  0244  1303               	bcf	3,6	;RP1=0, select bank1
  1245  0245  0820               	movf	_d3^(0+128),w
  1246  0246  1283               	bcf	3,5	;RP0=0, select bank0
  1247  0247  1303               	bcf	3,6	;RP1=0, select bank0
  1248  0248  00B4               	movwf	___flmul@a
  1249  0249  120A  118A  2485  120A  118A  	fcall	___flmul
  1250  024E  1283               	bcf	3,5	;RP0=0, select bank0
  1251  024F  1303               	bcf	3,6	;RP1=0, select bank0
  1252  0250  0833               	movf	?___flmul+3,w
  1253  0251  00D1               	movwf	___fldiv@b+3
  1254  0252  0832               	movf	?___flmul+2,w
  1255  0253  00D0               	movwf	___fldiv@b+2
  1256  0254  0831               	movf	?___flmul+1,w
  1257  0255  00CF               	movwf	___fldiv@b+1
  1258  0256  0830               	movf	?___flmul,w
  1259  0257  00CE               	movwf	___fldiv@b
  1260  0258  120A  158A  238B  120A  118A  	fcall	___fldiv
  1261  025D  1283               	bcf	3,5	;RP0=0, select bank0
  1262  025E  1303               	bcf	3,6	;RP1=0, select bank0
  1263  025F  084D               	movf	?___fldiv+3,w
  1264  0260  1683               	bsf	3,5	;RP0=1, select bank1
  1265  0261  1303               	bcf	3,6	;RP1=0, select bank1
  1266  0262  00A3               	movwf	(_d3+3)^(0+128)
  1267  0263  1283               	bcf	3,5	;RP0=0, select bank0
  1268  0264  1303               	bcf	3,6	;RP1=0, select bank0
  1269  0265  084C               	movf	?___fldiv+2,w
  1270  0266  1683               	bsf	3,5	;RP0=1, select bank1
  1271  0267  1303               	bcf	3,6	;RP1=0, select bank1
  1272  0268  00A2               	movwf	(_d3+2)^(0+128)
  1273  0269  1283               	bcf	3,5	;RP0=0, select bank0
  1274  026A  1303               	bcf	3,6	;RP1=0, select bank0
  1275  026B  084B               	movf	?___fldiv+1,w
  1276  026C  1683               	bsf	3,5	;RP0=1, select bank1
  1277  026D  1303               	bcf	3,6	;RP1=0, select bank1
  1278  026E  00A1               	movwf	(_d3+1)^(0+128)
  1279  026F  1283               	bcf	3,5	;RP0=0, select bank0
  1280  0270  1303               	bcf	3,6	;RP1=0, select bank0
  1281  0271  084A               	movf	?___fldiv,w
  1282  0272  1683               	bsf	3,5	;RP0=1, select bank1
  1283  0273  1303               	bcf	3,6	;RP1=0, select bank1
  1284  0274  00A0               	movwf	_d3^(0+128)
  1285  0275                     l2570:	
  1286                           
  1287                           ;main_M.c: 98:         od3 = d3;
  1288  0275  0823               	movf	(_d3+3)^(0+128),w
  1289  0276  1283               	bcf	3,5	;RP0=0, select bank0
  1290  0277  1303               	bcf	3,6	;RP1=0, select bank0
  1291  0278  00CD               	movwf	___fltol@f1+3
  1292  0279  1683               	bsf	3,5	;RP0=1, select bank1
  1293  027A  1303               	bcf	3,6	;RP1=0, select bank1
  1294  027B  0822               	movf	(_d3+2)^(0+128),w
  1295  027C  1283               	bcf	3,5	;RP0=0, select bank0
  1296  027D  1303               	bcf	3,6	;RP1=0, select bank0
  1297  027E  00CC               	movwf	___fltol@f1+2
  1298  027F  1683               	bsf	3,5	;RP0=1, select bank1
  1299  0280  1303               	bcf	3,6	;RP1=0, select bank1
  1300  0281  0821               	movf	(_d3+1)^(0+128),w
  1301  0282  1283               	bcf	3,5	;RP0=0, select bank0
  1302  0283  1303               	bcf	3,6	;RP1=0, select bank0
  1303  0284  00CB               	movwf	___fltol@f1+1
  1304  0285  1683               	bsf	3,5	;RP0=1, select bank1
  1305  0286  1303               	bcf	3,6	;RP1=0, select bank1
  1306  0287  0820               	movf	_d3^(0+128),w
  1307  0288  1283               	bcf	3,5	;RP0=0, select bank0
  1308  0289  1303               	bcf	3,6	;RP1=0, select bank0
  1309  028A  00CA               	movwf	___fltol@f1
  1310  028B  120A  158A  2253  120A  118A  	fcall	___fltol
  1311  0290  1283               	bcf	3,5	;RP0=0, select bank0
  1312  0291  1303               	bcf	3,6	;RP1=0, select bank0
  1313  0292  084A               	movf	?___fltol,w
  1314  0293  00E4               	movwf	??_main
  1315  0294  0864               	movf	??_main,w
  1316  0295  00EE               	movwf	_od3
  1317  0296                     l2572:	
  1318                           
  1319                           ;main_M.c: 99:         dd3 = (d3 - od3)*100;
  1320  0296  1683               	bsf	3,5	;RP0=1, select bank1
  1321  0297  1303               	bcf	3,6	;RP1=0, select bank1
  1322  0298  0823               	movf	(_d3+3)^(0+128),w
  1323  0299  1283               	bcf	3,5	;RP0=0, select bank0
  1324  029A  1303               	bcf	3,6	;RP1=0, select bank0
  1325  029B  00AF               	movwf	___flsub@b+3
  1326  029C  1683               	bsf	3,5	;RP0=1, select bank1
  1327  029D  1303               	bcf	3,6	;RP1=0, select bank1
  1328  029E  0822               	movf	(_d3+2)^(0+128),w
  1329  029F  1283               	bcf	3,5	;RP0=0, select bank0
  1330  02A0  1303               	bcf	3,6	;RP1=0, select bank0
  1331  02A1  00AE               	movwf	___flsub@b+2
  1332  02A2  1683               	bsf	3,5	;RP0=1, select bank1
  1333  02A3  1303               	bcf	3,6	;RP1=0, select bank1
  1334  02A4  0821               	movf	(_d3+1)^(0+128),w
  1335  02A5  1283               	bcf	3,5	;RP0=0, select bank0
  1336  02A6  1303               	bcf	3,6	;RP1=0, select bank0
  1337  02A7  00AD               	movwf	___flsub@b+1
  1338  02A8  1683               	bsf	3,5	;RP0=1, select bank1
  1339  02A9  1303               	bcf	3,6	;RP1=0, select bank1
  1340  02AA  0820               	movf	_d3^(0+128),w
  1341  02AB  1283               	bcf	3,5	;RP0=0, select bank0
  1342  02AC  1303               	bcf	3,6	;RP1=0, select bank0
  1343  02AD  00AC               	movwf	___flsub@b
  1344  02AE  086E               	movf	_od3,w
  1345  02AF  00E4               	movwf	??_main
  1346  02B0  01E5               	clrf	??_main+1
  1347  02B1  01E6               	clrf	??_main+2
  1348  02B2  01E7               	clrf	??_main+3
  1349  02B3  0867               	movf	??_main+3,w
  1350  02B4  00F9               	movwf	___xxtofl@val+3
  1351  02B5  0866               	movf	??_main+2,w
  1352  02B6  00F8               	movwf	___xxtofl@val+2
  1353  02B7  0865               	movf	??_main+1,w
  1354  02B8  00F7               	movwf	___xxtofl@val+1
  1355  02B9  0864               	movf	??_main,w
  1356  02BA  00F6               	movwf	___xxtofl@val
  1357  02BB  3001               	movlw	1
  1358  02BC  120A  158A  22CF  120A  118A  	fcall	___xxtofl
  1359  02C1  0879               	movf	?___xxtofl+3,w
  1360  02C2  1283               	bcf	3,5	;RP0=0, select bank0
  1361  02C3  1303               	bcf	3,6	;RP1=0, select bank0
  1362  02C4  00AB               	movwf	___flsub@a+3
  1363  02C5  0878               	movf	?___xxtofl+2,w
  1364  02C6  00AA               	movwf	___flsub@a+2
  1365  02C7  0877               	movf	?___xxtofl+1,w
  1366  02C8  00A9               	movwf	___flsub@a+1
  1367  02C9  0876               	movf	?___xxtofl,w
  1368  02CA  00A8               	movwf	___flsub@a
  1369  02CB  120A  158A  2049  120A  118A  	fcall	___flsub
  1370  02D0  1283               	bcf	3,5	;RP0=0, select bank0
  1371  02D1  1303               	bcf	3,6	;RP1=0, select bank0
  1372  02D2  082B               	movf	?___flsub+3,w
  1373  02D3  00B7               	movwf	___flmul@a+3
  1374  02D4  082A               	movf	?___flsub+2,w
  1375  02D5  00B6               	movwf	___flmul@a+2
  1376  02D6  0829               	movf	?___flsub+1,w
  1377  02D7  00B5               	movwf	___flmul@a+1
  1378  02D8  0828               	movf	?___flsub,w
  1379  02D9  00B4               	movwf	___flmul@a
  1380  02DA  3042               	movlw	66
  1381  02DB  00B3               	movwf	___flmul@b+3
  1382  02DC  30C8               	movlw	200
  1383  02DD  00B2               	movwf	___flmul@b+2
  1384  02DE  3000               	movlw	0
  1385  02DF  00B1               	movwf	___flmul@b+1
  1386  02E0  3000               	movlw	0
  1387  02E1  00B0               	movwf	___flmul@b
  1388  02E2  120A  118A  2485  120A  118A  	fcall	___flmul
  1389  02E7  1283               	bcf	3,5	;RP0=0, select bank0
  1390  02E8  1303               	bcf	3,6	;RP1=0, select bank0
  1391  02E9  0833               	movf	?___flmul+3,w
  1392  02EA  00CD               	movwf	___fltol@f1+3
  1393  02EB  0832               	movf	?___flmul+2,w
  1394  02EC  00CC               	movwf	___fltol@f1+2
  1395  02ED  0831               	movf	?___flmul+1,w
  1396  02EE  00CB               	movwf	___fltol@f1+1
  1397  02EF  0830               	movf	?___flmul,w
  1398  02F0  00CA               	movwf	___fltol@f1
  1399  02F1  120A  158A  2253  120A  118A  	fcall	___fltol
  1400  02F6  1283               	bcf	3,5	;RP0=0, select bank0
  1401  02F7  1303               	bcf	3,6	;RP1=0, select bank0
  1402  02F8  084A               	movf	?___fltol,w
  1403  02F9  00E8               	movwf	??_main+4
  1404  02FA  0868               	movf	??_main+4,w
  1405  02FB  00ED               	movwf	_dd3
  1406                           
  1407                           ;main_M.c: 100:         d3_1 = dd3;
  1408  02FC  086D               	movf	_dd3,w
  1409  02FD  00E4               	movwf	??_main
  1410  02FE  0864               	movf	??_main,w
  1411  02FF  00EC               	movwf	_d3_1
  1412  0300                     l2574:	
  1413                           
  1414                           ;main_M.c: 102:         Lcd_Set_Cursor(1,2);
  1415  0300  3002               	movlw	2
  1416  0301  00E4               	movwf	??_main
  1417  0302  0864               	movf	??_main,w
  1418  0303  00F3               	movwf	Lcd_Set_Cursor@posy
  1419  0304  3001               	movlw	1
  1420  0305  160A  118A  27E5  120A  118A  	fcall	_Lcd_Set_Cursor
  1421  030A                     l2576:	
  1422                           
  1423                           ;main_M.c: 103:         Lcd_Write_Int(od3);
  1424  030A  1283               	bcf	3,5	;RP0=0, select bank0
  1425  030B  1303               	bcf	3,6	;RP1=0, select bank0
  1426  030C  086E               	movf	_od3,w
  1427  030D  120A  158A  202B  120A  118A  	fcall	_Lcd_Write_Int
  1428  0312                     l2578:	
  1429                           
  1430                           ;main_M.c: 104:         Lcd_Write_Char('.');
  1431  0312  302E               	movlw	46
  1432  0313  160A  118A  27D1  120A  118A  	fcall	_Lcd_Write_Char
  1433  0318                     l2580:	
  1434                           
  1435                           ;main_M.c: 105:         if (d3_1 >= 10){
  1436  0318  300A               	movlw	10
  1437  0319  1283               	bcf	3,5	;RP0=0, select bank0
  1438  031A  1303               	bcf	3,6	;RP1=0, select bank0
  1439  031B  026C               	subwf	_d3_1,w
  1440  031C  1C03               	skipc
  1441  031D  2B1F               	goto	u3541
  1442  031E  2B20               	goto	u3540
  1443  031F                     u3541:	
  1444  031F  2B27               	goto	l2584
  1445  0320                     u3540:	
  1446  0320                     l2582:	
  1447                           
  1448                           ;main_M.c: 106:             Lcd_Write_Int(d3_1);
  1449  0320  086C               	movf	_d3_1,w
  1450  0321  120A  158A  202B  120A  118A  	fcall	_Lcd_Write_Int
  1451                           
  1452                           ;main_M.c: 107:         }else{
  1453  0326  2B35               	goto	l2588
  1454  0327                     l2584:	
  1455                           
  1456                           ;main_M.c: 108:             Lcd_Write_Char('0');
  1457  0327  3030               	movlw	48
  1458  0328  160A  118A  27D1  120A  118A  	fcall	_Lcd_Write_Char
  1459  032D                     l2586:	
  1460                           
  1461                           ;main_M.c: 109:             Lcd_Write_Int(d3_1);
  1462  032D  1283               	bcf	3,5	;RP0=0, select bank0
  1463  032E  1303               	bcf	3,6	;RP1=0, select bank0
  1464  032F  086C               	movf	_d3_1,w
  1465  0330  120A  158A  202B  120A  118A  	fcall	_Lcd_Write_Int
  1466  0335                     l2588:	
  1467                           
  1468                           ;main_M.c: 112:         d1 = d1 * 5/255;
  1469  0335  3043               	movlw	67
  1470  0336  1283               	bcf	3,5	;RP0=0, select bank0
  1471  0337  1303               	bcf	3,6	;RP1=0, select bank0
  1472  0338  00CD               	movwf	___fldiv@a+3
  1473  0339  307F               	movlw	127
  1474  033A  00CC               	movwf	___fldiv@a+2
  1475  033B  3000               	movlw	0
  1476  033C  00CB               	movwf	___fldiv@a+1
  1477  033D  3000               	movlw	0
  1478  033E  00CA               	movwf	___fldiv@a
  1479  033F  3040               	movlw	64
  1480  0340  00B3               	movwf	___flmul@b+3
  1481  0341  30A0               	movlw	160
  1482  0342  00B2               	movwf	___flmul@b+2
  1483  0343  3000               	movlw	0
  1484  0344  00B1               	movwf	___flmul@b+1
  1485  0345  3000               	movlw	0
  1486  0346  00B0               	movwf	___flmul@b
  1487  0347  1683               	bsf	3,5	;RP0=1, select bank1
  1488  0348  1303               	bcf	3,6	;RP1=0, select bank1
  1489  0349  0827               	movf	(_d1+3)^(0+128),w
  1490  034A  1283               	bcf	3,5	;RP0=0, select bank0
  1491  034B  1303               	bcf	3,6	;RP1=0, select bank0
  1492  034C  00B7               	movwf	___flmul@a+3
  1493  034D  1683               	bsf	3,5	;RP0=1, select bank1
  1494  034E  1303               	bcf	3,6	;RP1=0, select bank1
  1495  034F  0826               	movf	(_d1+2)^(0+128),w
  1496  0350  1283               	bcf	3,5	;RP0=0, select bank0
  1497  0351  1303               	bcf	3,6	;RP1=0, select bank0
  1498  0352  00B6               	movwf	___flmul@a+2
  1499  0353  1683               	bsf	3,5	;RP0=1, select bank1
  1500  0354  1303               	bcf	3,6	;RP1=0, select bank1
  1501  0355  0825               	movf	(_d1+1)^(0+128),w
  1502  0356  1283               	bcf	3,5	;RP0=0, select bank0
  1503  0357  1303               	bcf	3,6	;RP1=0, select bank0
  1504  0358  00B5               	movwf	___flmul@a+1
  1505  0359  1683               	bsf	3,5	;RP0=1, select bank1
  1506  035A  1303               	bcf	3,6	;RP1=0, select bank1
  1507  035B  0824               	movf	_d1^(0+128),w
  1508  035C  1283               	bcf	3,5	;RP0=0, select bank0
  1509  035D  1303               	bcf	3,6	;RP1=0, select bank0
  1510  035E  00B4               	movwf	___flmul@a
  1511  035F  120A  118A  2485  120A  118A  	fcall	___flmul
  1512  0364  1283               	bcf	3,5	;RP0=0, select bank0
  1513  0365  1303               	bcf	3,6	;RP1=0, select bank0
  1514  0366  0833               	movf	?___flmul+3,w
  1515  0367  00D1               	movwf	___fldiv@b+3
  1516  0368  0832               	movf	?___flmul+2,w
  1517  0369  00D0               	movwf	___fldiv@b+2
  1518  036A  0831               	movf	?___flmul+1,w
  1519  036B  00CF               	movwf	___fldiv@b+1
  1520  036C  0830               	movf	?___flmul,w
  1521  036D  00CE               	movwf	___fldiv@b
  1522  036E  120A  158A  238B  120A  118A  	fcall	___fldiv
  1523  0373  1283               	bcf	3,5	;RP0=0, select bank0
  1524  0374  1303               	bcf	3,6	;RP1=0, select bank0
  1525  0375  084D               	movf	?___fldiv+3,w
  1526  0376  1683               	bsf	3,5	;RP0=1, select bank1
  1527  0377  1303               	bcf	3,6	;RP1=0, select bank1
  1528  0378  00A7               	movwf	(_d1+3)^(0+128)
  1529  0379  1283               	bcf	3,5	;RP0=0, select bank0
  1530  037A  1303               	bcf	3,6	;RP1=0, select bank0
  1531  037B  084C               	movf	?___fldiv+2,w
  1532  037C  1683               	bsf	3,5	;RP0=1, select bank1
  1533  037D  1303               	bcf	3,6	;RP1=0, select bank1
  1534  037E  00A6               	movwf	(_d1+2)^(0+128)
  1535  037F  1283               	bcf	3,5	;RP0=0, select bank0
  1536  0380  1303               	bcf	3,6	;RP1=0, select bank0
  1537  0381  084B               	movf	?___fldiv+1,w
  1538  0382  1683               	bsf	3,5	;RP0=1, select bank1
  1539  0383  1303               	bcf	3,6	;RP1=0, select bank1
  1540  0384  00A5               	movwf	(_d1+1)^(0+128)
  1541  0385  1283               	bcf	3,5	;RP0=0, select bank0
  1542  0386  1303               	bcf	3,6	;RP1=0, select bank0
  1543  0387  084A               	movf	?___fldiv,w
  1544  0388  1683               	bsf	3,5	;RP0=1, select bank1
  1545  0389  1303               	bcf	3,6	;RP1=0, select bank1
  1546  038A  00A4               	movwf	_d1^(0+128)
  1547  038B                     l2590:	
  1548                           
  1549                           ;main_M.c: 113:         od1 = d1;
  1550  038B  0827               	movf	(_d1+3)^(0+128),w
  1551  038C  1283               	bcf	3,5	;RP0=0, select bank0
  1552  038D  1303               	bcf	3,6	;RP1=0, select bank0
  1553  038E  00CD               	movwf	___fltol@f1+3
  1554  038F  1683               	bsf	3,5	;RP0=1, select bank1
  1555  0390  1303               	bcf	3,6	;RP1=0, select bank1
  1556  0391  0826               	movf	(_d1+2)^(0+128),w
  1557  0392  1283               	bcf	3,5	;RP0=0, select bank0
  1558  0393  1303               	bcf	3,6	;RP1=0, select bank0
  1559  0394  00CC               	movwf	___fltol@f1+2
  1560  0395  1683               	bsf	3,5	;RP0=1, select bank1
  1561  0396  1303               	bcf	3,6	;RP1=0, select bank1
  1562  0397  0825               	movf	(_d1+1)^(0+128),w
  1563  0398  1283               	bcf	3,5	;RP0=0, select bank0
  1564  0399  1303               	bcf	3,6	;RP1=0, select bank0
  1565  039A  00CB               	movwf	___fltol@f1+1
  1566  039B  1683               	bsf	3,5	;RP0=1, select bank1
  1567  039C  1303               	bcf	3,6	;RP1=0, select bank1
  1568  039D  0824               	movf	_d1^(0+128),w
  1569  039E  1283               	bcf	3,5	;RP0=0, select bank0
  1570  039F  1303               	bcf	3,6	;RP1=0, select bank0
  1571  03A0  00CA               	movwf	___fltol@f1
  1572  03A1  120A  158A  2253  120A  118A  	fcall	___fltol
  1573  03A6  1283               	bcf	3,5	;RP0=0, select bank0
  1574  03A7  1303               	bcf	3,6	;RP1=0, select bank0
  1575  03A8  084A               	movf	?___fltol,w
  1576  03A9  00E4               	movwf	??_main
  1577  03AA  0864               	movf	??_main,w
  1578  03AB  00EB               	movwf	_od1
  1579  03AC                     l2592:	
  1580                           
  1581                           ;main_M.c: 114:         dd1 = (d1 - od1)*100;
  1582  03AC  1683               	bsf	3,5	;RP0=1, select bank1
  1583  03AD  1303               	bcf	3,6	;RP1=0, select bank1
  1584  03AE  0827               	movf	(_d1+3)^(0+128),w
  1585  03AF  1283               	bcf	3,5	;RP0=0, select bank0
  1586  03B0  1303               	bcf	3,6	;RP1=0, select bank0
  1587  03B1  00AF               	movwf	___flsub@b+3
  1588  03B2  1683               	bsf	3,5	;RP0=1, select bank1
  1589  03B3  1303               	bcf	3,6	;RP1=0, select bank1
  1590  03B4  0826               	movf	(_d1+2)^(0+128),w
  1591  03B5  1283               	bcf	3,5	;RP0=0, select bank0
  1592  03B6  1303               	bcf	3,6	;RP1=0, select bank0
  1593  03B7  00AE               	movwf	___flsub@b+2
  1594  03B8  1683               	bsf	3,5	;RP0=1, select bank1
  1595  03B9  1303               	bcf	3,6	;RP1=0, select bank1
  1596  03BA  0825               	movf	(_d1+1)^(0+128),w
  1597  03BB  1283               	bcf	3,5	;RP0=0, select bank0
  1598  03BC  1303               	bcf	3,6	;RP1=0, select bank0
  1599  03BD  00AD               	movwf	___flsub@b+1
  1600  03BE  1683               	bsf	3,5	;RP0=1, select bank1
  1601  03BF  1303               	bcf	3,6	;RP1=0, select bank1
  1602  03C0  0824               	movf	_d1^(0+128),w
  1603  03C1  1283               	bcf	3,5	;RP0=0, select bank0
  1604  03C2  1303               	bcf	3,6	;RP1=0, select bank0
  1605  03C3  00AC               	movwf	___flsub@b
  1606  03C4  086B               	movf	_od1,w
  1607  03C5  00E4               	movwf	??_main
  1608  03C6  01E5               	clrf	??_main+1
  1609  03C7  01E6               	clrf	??_main+2
  1610  03C8  01E7               	clrf	??_main+3
  1611  03C9  0867               	movf	??_main+3,w
  1612  03CA  00F9               	movwf	___xxtofl@val+3
  1613  03CB  0866               	movf	??_main+2,w
  1614  03CC  00F8               	movwf	___xxtofl@val+2
  1615  03CD  0865               	movf	??_main+1,w
  1616  03CE  00F7               	movwf	___xxtofl@val+1
  1617  03CF  0864               	movf	??_main,w
  1618  03D0  00F6               	movwf	___xxtofl@val
  1619  03D1  3001               	movlw	1
  1620  03D2  120A  158A  22CF  120A  118A  	fcall	___xxtofl
  1621  03D7  0879               	movf	?___xxtofl+3,w
  1622  03D8  1283               	bcf	3,5	;RP0=0, select bank0
  1623  03D9  1303               	bcf	3,6	;RP1=0, select bank0
  1624  03DA  00AB               	movwf	___flsub@a+3
  1625  03DB  0878               	movf	?___xxtofl+2,w
  1626  03DC  00AA               	movwf	___flsub@a+2
  1627  03DD  0877               	movf	?___xxtofl+1,w
  1628  03DE  00A9               	movwf	___flsub@a+1
  1629  03DF  0876               	movf	?___xxtofl,w
  1630  03E0  00A8               	movwf	___flsub@a
  1631  03E1  120A  158A  2049  120A  118A  	fcall	___flsub
  1632  03E6  1283               	bcf	3,5	;RP0=0, select bank0
  1633  03E7  1303               	bcf	3,6	;RP1=0, select bank0
  1634  03E8  082B               	movf	?___flsub+3,w
  1635  03E9  00B7               	movwf	___flmul@a+3
  1636  03EA  082A               	movf	?___flsub+2,w
  1637  03EB  00B6               	movwf	___flmul@a+2
  1638  03EC  0829               	movf	?___flsub+1,w
  1639  03ED  00B5               	movwf	___flmul@a+1
  1640  03EE  0828               	movf	?___flsub,w
  1641  03EF  00B4               	movwf	___flmul@a
  1642  03F0  3042               	movlw	66
  1643  03F1  00B3               	movwf	___flmul@b+3
  1644  03F2  30C8               	movlw	200
  1645  03F3  00B2               	movwf	___flmul@b+2
  1646  03F4  3000               	movlw	0
  1647  03F5  00B1               	movwf	___flmul@b+1
  1648  03F6  3000               	movlw	0
  1649  03F7  00B0               	movwf	___flmul@b
  1650  03F8  120A  118A  2485  120A  118A  	fcall	___flmul
  1651  03FD  1283               	bcf	3,5	;RP0=0, select bank0
  1652  03FE  1303               	bcf	3,6	;RP1=0, select bank0
  1653  03FF  0833               	movf	?___flmul+3,w
  1654  0400  00CD               	movwf	___fltol@f1+3
  1655  0401  0832               	movf	?___flmul+2,w
  1656  0402  00CC               	movwf	___fltol@f1+2
  1657  0403  0831               	movf	?___flmul+1,w
  1658  0404  00CB               	movwf	___fltol@f1+1
  1659  0405  0830               	movf	?___flmul,w
  1660  0406  00CA               	movwf	___fltol@f1
  1661  0407  120A  158A  2253  120A  118A  	fcall	___fltol
  1662  040C  1283               	bcf	3,5	;RP0=0, select bank0
  1663  040D  1303               	bcf	3,6	;RP1=0, select bank0
  1664  040E  084A               	movf	?___fltol,w
  1665  040F  00E8               	movwf	??_main+4
  1666  0410  0868               	movf	??_main+4,w
  1667  0411  00EA               	movwf	_dd1
  1668  0412                     l2594:	
  1669                           
  1670                           ;main_M.c: 115:         d1_1 = dd1;
  1671  0412  086A               	movf	_dd1,w
  1672  0413  00E4               	movwf	??_main
  1673  0414  0864               	movf	??_main,w
  1674  0415  00E9               	movwf	_d1_1
  1675  0416                     l2596:	
  1676                           
  1677                           ;main_M.c: 117:         Lcd_Set_Cursor(13,2);
  1678  0416  3002               	movlw	2
  1679  0417  00E4               	movwf	??_main
  1680  0418  0864               	movf	??_main,w
  1681  0419  00F3               	movwf	Lcd_Set_Cursor@posy
  1682  041A  300D               	movlw	13
  1683  041B  160A  118A  27E5  120A  118A  	fcall	_Lcd_Set_Cursor
  1684  0420                     l2598:	
  1685                           
  1686                           ;main_M.c: 118:         Lcd_Write_Int(od1);
  1687  0420  1283               	bcf	3,5	;RP0=0, select bank0
  1688  0421  1303               	bcf	3,6	;RP1=0, select bank0
  1689  0422  086B               	movf	_od1,w
  1690  0423  120A  158A  202B  120A  118A  	fcall	_Lcd_Write_Int
  1691  0428                     l2600:	
  1692                           
  1693                           ;main_M.c: 119:         Lcd_Write_Char('.');
  1694  0428  302E               	movlw	46
  1695  0429  160A  118A  27D1  120A  118A  	fcall	_Lcd_Write_Char
  1696                           
  1697                           ;main_M.c: 120:         if (d3_1 >= 10){
  1698  042E  300A               	movlw	10
  1699  042F  1283               	bcf	3,5	;RP0=0, select bank0
  1700  0430  1303               	bcf	3,6	;RP1=0, select bank0
  1701  0431  026C               	subwf	_d3_1,w
  1702  0432  1C03               	skipc
  1703  0433  2C35               	goto	u3551
  1704  0434  2C36               	goto	u3550
  1705  0435                     u3551:	
  1706  0435  2C3D               	goto	l2604
  1707  0436                     u3550:	
  1708  0436                     l2602:	
  1709                           
  1710                           ;main_M.c: 121:             Lcd_Write_Int(d1_1);
  1711  0436  0869               	movf	_d1_1,w
  1712  0437  120A  158A  202B  120A  118A  	fcall	_Lcd_Write_Int
  1713                           
  1714                           ;main_M.c: 122:         }else{
  1715  043C  2C4B               	goto	l2608
  1716  043D                     l2604:	
  1717                           
  1718                           ;main_M.c: 123:             Lcd_Write_Char('0');
  1719  043D  3030               	movlw	48
  1720  043E  160A  118A  27D1  120A  118A  	fcall	_Lcd_Write_Char
  1721  0443                     l2606:	
  1722                           
  1723                           ;main_M.c: 124:             Lcd_Write_Int(d1_1);
  1724  0443  1283               	bcf	3,5	;RP0=0, select bank0
  1725  0444  1303               	bcf	3,6	;RP1=0, select bank0
  1726  0445  0869               	movf	_d1_1,w
  1727  0446  120A  158A  202B  120A  118A  	fcall	_Lcd_Write_Int
  1728  044B                     l2608:	
  1729                           
  1730                           ;main_M.c: 127:         if(d2 < 10){
  1731  044B  300A               	movlw	10
  1732  044C  1283               	bcf	3,5	;RP0=0, select bank0
  1733  044D  1303               	bcf	3,6	;RP1=0, select bank0
  1734  044E  026F               	subwf	_d2,w
  1735  044F  1803               	skipnc
  1736  0450  2C52               	goto	u3561
  1737  0451  2C53               	goto	u3560
  1738  0452                     u3561:	
  1739  0452  2C6F               	goto	l2616
  1740  0453                     u3560:	
  1741  0453                     l2610:	
  1742                           
  1743                           ;main_M.c: 128:             Lcd_Set_Cursor(7,2);
  1744  0453  3002               	movlw	2
  1745  0454  00E4               	movwf	??_main
  1746  0455  0864               	movf	??_main,w
  1747  0456  00F3               	movwf	Lcd_Set_Cursor@posy
  1748  0457  3007               	movlw	7
  1749  0458  160A  118A  27E5  120A  118A  	fcall	_Lcd_Set_Cursor
  1750  045D                     l2612:	
  1751                           
  1752                           ;main_M.c: 129:             Lcd_Write_String("0");
  1753  045D  3017               	movlw	(low ((STR_4-__stringbase)| (0+32768)))& (0+255)
  1754  045E  00F3               	movwf	Lcd_Write_String@var
  1755  045F  3080               	movlw	128
  1756  0460  00F4               	movwf	Lcd_Write_String@var+1
  1757  0461  120A  158A  215C  120A  118A  	fcall	_Lcd_Write_String
  1758  0466                     l2614:	
  1759                           
  1760                           ;main_M.c: 130:             Lcd_Write_Int(d2);
  1761  0466  1283               	bcf	3,5	;RP0=0, select bank0
  1762  0467  1303               	bcf	3,6	;RP1=0, select bank0
  1763  0468  086F               	movf	_d2,w
  1764  0469  120A  158A  202B  120A  118A  	fcall	_Lcd_Write_Int
  1765                           
  1766                           ;main_M.c: 131:         }else{
  1767  046E  296A               	goto	l71
  1768  046F                     l2616:	
  1769                           
  1770                           ;main_M.c: 132:             Lcd_Set_Cursor(7,2);
  1771  046F  3002               	movlw	2
  1772  0470  00E4               	movwf	??_main
  1773  0471  0864               	movf	??_main,w
  1774  0472  00F3               	movwf	Lcd_Set_Cursor@posy
  1775  0473  3007               	movlw	7
  1776  0474  160A  118A  27E5  120A  118A  	fcall	_Lcd_Set_Cursor
  1777  0479                     l2618:	
  1778                           
  1779                           ;main_M.c: 133:             Lcd_Write_Int(d2);
  1780  0479  1283               	bcf	3,5	;RP0=0, select bank0
  1781  047A  1303               	bcf	3,6	;RP1=0, select bank0
  1782  047B  086F               	movf	_d2,w
  1783  047C  120A  158A  202B  120A  118A  	fcall	_Lcd_Write_Int
  1784  0481  296A               	goto	l71
  1785  0482  120A  118A  2800   	ljmp	start
  1786  0485                     __end_of_main:	
  1787                           
  1788                           	psect	text1
  1789  0894                     __ptext1:	
  1790 ;; *************** function _setup *****************
  1791 ;; Defined at:
  1792 ;;		line 144 in file "main_M.c"
  1793 ;; Parameters:    Size  Location     Type
  1794 ;;		None
  1795 ;; Auto vars:     Size  Location     Type
  1796 ;;		None
  1797 ;; Return value:  Size  Location     Type
  1798 ;;                  1    wreg      void 
  1799 ;; Registers used:
  1800 ;;		wreg, status,2, status,0, pclath, cstack
  1801 ;; Tracked objects:
  1802 ;;		On entry : 0/0
  1803 ;;		On exit  : 0/0
  1804 ;;		Unchanged: 0/0
  1805 ;; Data sizes:     COMMON   BANK0   BANK1   BANK3   BANK2
  1806 ;;      Params:         0       0       0       0       0
  1807 ;;      Locals:         0       0       0       0       0
  1808 ;;      Temps:          0       0       0       0       0
  1809 ;;      Totals:         0       0       0       0       0
  1810 ;;Total ram usage:        0 bytes
  1811 ;; Hardware stack levels used:    1
  1812 ;; Hardware stack levels required when called:    2
  1813 ;; This function calls:
  1814 ;;		_I2C_Master_Init
  1815 ;;		_Lcd_Clear
  1816 ;;		_initLCD
  1817 ;; This function is called by:
  1818 ;;		_main
  1819 ;; This function uses a non-reentrant model
  1820 ;;
  1821                           
  1822                           
  1823                           ;psect for function _setup
  1824  0894                     _setup:	
  1825  0894                     l2130:	
  1826                           ;incstack = 0
  1827                           ; Regs used in _setup: [wreg+status,2+status,0+pclath+cstack]
  1828                           
  1829                           
  1830                           ;main_M.c: 145:     ANSEL = 0;
  1831  0894  1683               	bsf	3,5	;RP0=1, select bank3
  1832  0895  1703               	bsf	3,6	;RP1=1, select bank3
  1833  0896  0188               	clrf	8	;volatile
  1834                           
  1835                           ;main_M.c: 146:     ANSELH = 0;
  1836  0897  0189               	clrf	9	;volatile
  1837                           
  1838                           ;main_M.c: 148:     TRISA = 0;
  1839  0898  1683               	bsf	3,5	;RP0=1, select bank1
  1840  0899  1303               	bcf	3,6	;RP1=0, select bank1
  1841  089A  0185               	clrf	5	;volatile
  1842                           
  1843                           ;main_M.c: 149:     TRISB = 0;
  1844  089B  0186               	clrf	6	;volatile
  1845                           
  1846                           ;main_M.c: 150:     TRISD = 0;
  1847  089C  0188               	clrf	8	;volatile
  1848                           
  1849                           ;main_M.c: 152:     PORTB = 0;
  1850  089D  1283               	bcf	3,5	;RP0=0, select bank0
  1851  089E  1303               	bcf	3,6	;RP1=0, select bank0
  1852  089F  0186               	clrf	6	;volatile
  1853                           
  1854                           ;main_M.c: 153:     PORTA = 0;
  1855  08A0  0185               	clrf	5	;volatile
  1856                           
  1857                           ;main_M.c: 154:     PORTD = 0;
  1858  08A1  0188               	clrf	8	;volatile
  1859  08A2                     l2132:	
  1860                           
  1861                           ;main_M.c: 155:     initLCD();
  1862  08A2  120A  158A  219E  120A  158A  	fcall	_initLCD
  1863  08A7                     l2134:	
  1864                           
  1865                           ;main_M.c: 156:     Lcd_Clear();
  1866  08A7  160A  118A  278D  120A  158A  	fcall	_Lcd_Clear
  1867  08AC                     l2136:	
  1868                           
  1869                           ;main_M.c: 158:     I2C_Master_Init(100000);
  1870  08AC  3000               	movlw	0
  1871  08AD  1283               	bcf	3,5	;RP0=0, select bank0
  1872  08AE  1303               	bcf	3,6	;RP1=0, select bank0
  1873  08AF  00A3               	movwf	I2C_Master_Init@c+3
  1874  08B0  3001               	movlw	1
  1875  08B1  00A2               	movwf	I2C_Master_Init@c+2
  1876  08B2  3086               	movlw	134
  1877  08B3  00A1               	movwf	I2C_Master_Init@c+1
  1878  08B4  30A0               	movlw	160
  1879  08B5  00A0               	movwf	I2C_Master_Init@c
  1880  08B6  120A  158A  20EA  120A  158A  	fcall	_I2C_Master_Init
  1881  08BB                     l83:	
  1882  08BB  0008               	return
  1883  08BC                     __end_of_setup:	
  1884                           
  1885                           	psect	text2
  1886  099E                     __ptext2:	
  1887 ;; *************** function _initLCD *****************
  1888 ;; Defined at:
  1889 ;;		line 9 in file "LCD.c"
  1890 ;; Parameters:    Size  Location     Type
  1891 ;;		None
  1892 ;; Auto vars:     Size  Location     Type
  1893 ;;		None
  1894 ;; Return value:  Size  Location     Type
  1895 ;;                  1    wreg      void 
  1896 ;; Registers used:
  1897 ;;		wreg, status,2, status,0, pclath, cstack
  1898 ;; Tracked objects:
  1899 ;;		On entry : 0/0
  1900 ;;		On exit  : 0/0
  1901 ;;		Unchanged: 0/0
  1902 ;; Data sizes:     COMMON   BANK0   BANK1   BANK3   BANK2
  1903 ;;      Params:         0       0       0       0       0
  1904 ;;      Locals:         0       0       0       0       0
  1905 ;;      Temps:          2       0       0       0       0
  1906 ;;      Totals:         2       0       0       0       0
  1907 ;;Total ram usage:        2 bytes
  1908 ;; Hardware stack levels used:    1
  1909 ;; Hardware stack levels required when called:    1
  1910 ;; This function calls:
  1911 ;;		_Lcd_Cmd
  1912 ;; This function is called by:
  1913 ;;		_setup
  1914 ;; This function uses a non-reentrant model
  1915 ;;
  1916                           
  1917                           
  1918                           ;psect for function _initLCD
  1919  099E                     _initLCD:	
  1920  099E                     l1822:	
  1921                           ;incstack = 0
  1922                           ; Regs used in _initLCD: [wreg+status,2+status,0+pclath+cstack]
  1923                           
  1924                           
  1925                           ;LCD.c: 10: _delay((unsigned long)((15)*(4000000/4000.0)));
  1926  099E  3014               	movlw	20
  1927  099F  00F4               	movwf	??_initLCD+1
  1928  09A0  3079               	movlw	121
  1929  09A1  00F3               	movwf	??_initLCD
  1930  09A2                     u3607:	
  1931  09A2  0BF3               	decfsz	??_initLCD,f
  1932  09A3  29A2               	goto	u3607
  1933  09A4  0BF4               	decfsz	??_initLCD+1,f
  1934  09A5  29A2               	goto	u3607
  1935  09A6  29A7               	nop2
  1936  09A7                     l1824:	
  1937                           
  1938                           ;LCD.c: 12: Lcd_Cmd(0x030);
  1939  09A7  3030               	movlw	48
  1940  09A8  160A  118A  27BD  120A  158A  	fcall	_Lcd_Cmd
  1941  09AD                     l1826:	
  1942                           
  1943                           ;LCD.c: 13: _delay((unsigned long)((5)*(4000000/4000.0)));
  1944  09AD  3007               	movlw	7
  1945  09AE  00F4               	movwf	??_initLCD+1
  1946  09AF  307D               	movlw	125
  1947  09B0  00F3               	movwf	??_initLCD
  1948  09B1                     u3617:	
  1949  09B1  0BF3               	decfsz	??_initLCD,f
  1950  09B2  29B1               	goto	u3617
  1951  09B3  0BF4               	decfsz	??_initLCD+1,f
  1952  09B4  29B1               	goto	u3617
  1953                           
  1954                           ;LCD.c: 15: Lcd_Cmd(0x030);
  1955  09B5  3030               	movlw	48
  1956  09B6  160A  118A  27BD  120A  158A  	fcall	_Lcd_Cmd
  1957  09BB                     l1828:	
  1958                           
  1959                           ;LCD.c: 16: _delay((unsigned long)((11)*(4000000/4000.0)));
  1960  09BB  300F               	movlw	15
  1961  09BC  00F4               	movwf	??_initLCD+1
  1962  09BD  3047               	movlw	71
  1963  09BE  00F3               	movwf	??_initLCD
  1964  09BF                     u3627:	
  1965  09BF  0BF3               	decfsz	??_initLCD,f
  1966  09C0  29BF               	goto	u3627
  1967  09C1  0BF4               	decfsz	??_initLCD+1,f
  1968  09C2  29BF               	goto	u3627
  1969  09C3  29C4               	nop2
  1970  09C4                     l1830:	
  1971                           
  1972                           ;LCD.c: 18: Lcd_Cmd(0x030);
  1973  09C4  3030               	movlw	48
  1974  09C5  160A  118A  27BD  120A  158A  	fcall	_Lcd_Cmd
  1975                           
  1976                           ;LCD.c: 19: _delay((unsigned long)((160)*(4000000/4000000.0)));
  1977  09CA  3035               	movlw	53
  1978  09CB  00F3               	movwf	??_initLCD
  1979  09CC                     u3637:	
  1980  09CC  0BF3               	decfsz	??_initLCD,f
  1981  09CD  29CC               	goto	u3637
  1982  09CE                     l1832:	
  1983                           
  1984                           ;LCD.c: 22: Lcd_Cmd(0x38);
  1985  09CE  3038               	movlw	56
  1986  09CF  160A  118A  27BD  120A  158A  	fcall	_Lcd_Cmd
  1987  09D4                     l1834:	
  1988                           
  1989                           ;LCD.c: 23: Lcd_Cmd(0x10);
  1990  09D4  3010               	movlw	16
  1991  09D5  160A  118A  27BD  120A  158A  	fcall	_Lcd_Cmd
  1992  09DA                     l1836:	
  1993                           
  1994                           ;LCD.c: 24: Lcd_Cmd(0x01);
  1995  09DA  3001               	movlw	1
  1996  09DB  160A  118A  27BD  120A  158A  	fcall	_Lcd_Cmd
  1997  09E0                     l1838:	
  1998                           
  1999                           ;LCD.c: 25: Lcd_Cmd(0x06);
  2000  09E0  3006               	movlw	6
  2001  09E1  160A  118A  27BD  120A  158A  	fcall	_Lcd_Cmd
  2002  09E6                     l1840:	
  2003                           
  2004                           ;LCD.c: 26: Lcd_Cmd(0x0C);
  2005  09E6  300C               	movlw	12
  2006  09E7  160A  118A  27BD  120A  158A  	fcall	_Lcd_Cmd
  2007  09EC                     l151:	
  2008  09EC  0008               	return
  2009  09ED                     __end_of_initLCD:	
  2010                           
  2011                           	psect	text3
  2012  178D                     __ptext3:	
  2013 ;; *************** function _Lcd_Clear *****************
  2014 ;; Defined at:
  2015 ;;		line 39 in file "LCD.c"
  2016 ;; Parameters:    Size  Location     Type
  2017 ;;		None
  2018 ;; Auto vars:     Size  Location     Type
  2019 ;;		None
  2020 ;; Return value:  Size  Location     Type
  2021 ;;                  1    wreg      void 
  2022 ;; Registers used:
  2023 ;;		wreg, status,2, status,0, pclath, cstack
  2024 ;; Tracked objects:
  2025 ;;		On entry : 0/0
  2026 ;;		On exit  : 0/0
  2027 ;;		Unchanged: 0/0
  2028 ;; Data sizes:     COMMON   BANK0   BANK1   BANK3   BANK2
  2029 ;;      Params:         0       0       0       0       0
  2030 ;;      Locals:         0       0       0       0       0
  2031 ;;      Temps:          0       0       0       0       0
  2032 ;;      Totals:         0       0       0       0       0
  2033 ;;Total ram usage:        0 bytes
  2034 ;; Hardware stack levels used:    1
  2035 ;; Hardware stack levels required when called:    1
  2036 ;; This function calls:
  2037 ;;		_Lcd_Cmd
  2038 ;; This function is called by:
  2039 ;;		_setup
  2040 ;; This function uses a non-reentrant model
  2041 ;;
  2042                           
  2043                           
  2044                           ;psect for function _Lcd_Clear
  2045  178D                     _Lcd_Clear:	
  2046  178D                     l1842:	
  2047                           ;incstack = 0
  2048                           ; Regs used in _Lcd_Clear: [wreg+status,2+status,0+pclath+cstack]
  2049                           
  2050                           
  2051                           ;LCD.c: 40:     Lcd_Cmd(0x01);
  2052  178D  3001               	movlw	1
  2053  178E  160A  118A  27BD  160A  118A  	fcall	_Lcd_Cmd
  2054  1793                     l157:	
  2055  1793  0008               	return
  2056  1794                     __end_of_Lcd_Clear:	
  2057                           
  2058                           	psect	text4
  2059  08EA                     __ptext4:	
  2060 ;; *************** function _I2C_Master_Init *****************
  2061 ;; Defined at:
  2062 ;;		line 16 in file "I2C.c"
  2063 ;; Parameters:    Size  Location     Type
  2064 ;;  c               4    0[BANK0 ] const unsigned long 
  2065 ;; Auto vars:     Size  Location     Type
  2066 ;;		None
  2067 ;; Return value:  Size  Location     Type
  2068 ;;                  1    wreg      void 
  2069 ;; Registers used:
  2070 ;;		wreg, status,2, status,0, pclath, cstack
  2071 ;; Tracked objects:
  2072 ;;		On entry : 0/0
  2073 ;;		On exit  : 0/0
  2074 ;;		Unchanged: 0/0
  2075 ;; Data sizes:     COMMON   BANK0   BANK1   BANK3   BANK2
  2076 ;;      Params:         0       4       0       0       0
  2077 ;;      Locals:         0       0       0       0       0
  2078 ;;      Temps:          0       4       0       0       0
  2079 ;;      Totals:         0       8       0       0       0
  2080 ;;Total ram usage:        8 bytes
  2081 ;; Hardware stack levels used:    1
  2082 ;; Hardware stack levels required when called:    1
  2083 ;; This function calls:
  2084 ;;		___lldiv
  2085 ;; This function is called by:
  2086 ;;		_setup
  2087 ;; This function uses a non-reentrant model
  2088 ;;
  2089                           
  2090                           
  2091                           ;psect for function _I2C_Master_Init
  2092  08EA                     _I2C_Master_Init:	
  2093  08EA                     l1844:	
  2094                           ;incstack = 0
  2095                           ; Regs used in _I2C_Master_Init: [wreg+status,2+status,0+pclath+cstack]
  2096                           
  2097                           
  2098                           ;I2C.c: 16: void I2C_Master_Init(const unsigned long c);I2C.c: 17: {;I2C.c: 18:     SSPC
      +                          ON = 0b00101000;
  2099  08EA  3028               	movlw	40
  2100  08EB  1283               	bcf	3,5	;RP0=0, select bank0
  2101  08EC  1303               	bcf	3,6	;RP1=0, select bank0
  2102  08ED  0094               	movwf	20	;volatile
  2103  08EE                     l1846:	
  2104                           
  2105                           ;I2C.c: 19:     SSPCON2 = 0;
  2106  08EE  1683               	bsf	3,5	;RP0=1, select bank1
  2107  08EF  1303               	bcf	3,6	;RP1=0, select bank1
  2108  08F0  0191               	clrf	17	;volatile
  2109  08F1                     l1848:	
  2110                           
  2111                           ;I2C.c: 20:     SSPADD = (4000000/(4*c))-1;
  2112  08F1  1283               	bcf	3,5	;RP0=0, select bank0
  2113  08F2  1303               	bcf	3,6	;RP1=0, select bank0
  2114  08F3  0820               	movf	I2C_Master_Init@c,w
  2115  08F4  00A4               	movwf	??_I2C_Master_Init
  2116  08F5  0821               	movf	I2C_Master_Init@c+1,w
  2117  08F6  00A5               	movwf	??_I2C_Master_Init+1
  2118  08F7  0822               	movf	I2C_Master_Init@c+2,w
  2119  08F8  00A6               	movwf	??_I2C_Master_Init+2
  2120  08F9  0823               	movf	I2C_Master_Init@c+3,w
  2121  08FA  00A7               	movwf	??_I2C_Master_Init+3
  2122  08FB  3002               	movlw	2
  2123  08FC                     u2025:	
  2124  08FC  1003               	clrc
  2125  08FD  0DA4               	rlf	??_I2C_Master_Init,f
  2126  08FE  0DA5               	rlf	??_I2C_Master_Init+1,f
  2127  08FF  0DA6               	rlf	??_I2C_Master_Init+2,f
  2128  0900  0DA7               	rlf	??_I2C_Master_Init+3,f
  2129  0901                     u2020:	
  2130  0901  3EFF               	addlw	-1
  2131  0902  1D03               	skipz
  2132  0903  28FC               	goto	u2025
  2133  0904  0827               	movf	??_I2C_Master_Init+3,w
  2134  0905  00F3               	movwf	___lldiv@divisor+3
  2135  0906  0826               	movf	??_I2C_Master_Init+2,w
  2136  0907  00F2               	movwf	___lldiv@divisor+2
  2137  0908  0825               	movf	??_I2C_Master_Init+1,w
  2138  0909  00F1               	movwf	___lldiv@divisor+1
  2139  090A  0824               	movf	??_I2C_Master_Init,w
  2140  090B  00F0               	movwf	___lldiv@divisor
  2141  090C  3000               	movlw	0
  2142  090D  00F7               	movwf	___lldiv@dividend+3
  2143  090E  303D               	movlw	61
  2144  090F  00F6               	movwf	___lldiv@dividend+2
  2145  0910  3009               	movlw	9
  2146  0911  00F5               	movwf	___lldiv@dividend+1
  2147  0912  3000               	movlw	0
  2148  0913  00F4               	movwf	___lldiv@dividend
  2149  0914  120A  158A  21ED  120A  158A  	fcall	___lldiv
  2150  0919  0870               	movf	?___lldiv,w
  2151  091A  3EFF               	addlw	255
  2152  091B  1683               	bsf	3,5	;RP0=1, select bank1
  2153  091C  1303               	bcf	3,6	;RP1=0, select bank1
  2154  091D  0093               	movwf	19	;volatile
  2155  091E                     l1850:	
  2156                           
  2157                           ;I2C.c: 21:     SSPSTAT = 0;
  2158  091E  0194               	clrf	20	;volatile
  2159  091F                     l1852:	
  2160                           
  2161                           ;I2C.c: 22:     TRISCbits.TRISC3 = 1;
  2162  091F  1587               	bsf	7,3	;volatile
  2163  0920                     l1854:	
  2164                           
  2165                           ;I2C.c: 23:     TRISCbits.TRISC4 = 1;
  2166  0920  1607               	bsf	7,4	;volatile
  2167  0921                     l112:	
  2168  0921  0008               	return
  2169  0922                     __end_of_I2C_Master_Init:	
  2170                           
  2171                           	psect	text5
  2172  09ED                     __ptext5:	
  2173 ;; *************** function ___lldiv *****************
  2174 ;; Defined at:
  2175 ;;		line 5 in file "C:\Program Files (x86)\Microchip\xc8\v2.10\pic\sources\c90\common\__lldiv.c"
  2176 ;; Parameters:    Size  Location     Type
  2177 ;;  divisor         4    0[COMMON] unsigned long 
  2178 ;;  dividend        4    4[COMMON] unsigned long 
  2179 ;; Auto vars:     Size  Location     Type
  2180 ;;  quotient        4    9[COMMON] unsigned long 
  2181 ;;  counter         1   13[COMMON] unsigned char 
  2182 ;; Return value:  Size  Location     Type
  2183 ;;                  4    0[COMMON] unsigned long 
  2184 ;; Registers used:
  2185 ;;		wreg, status,2, status,0
  2186 ;; Tracked objects:
  2187 ;;		On entry : 0/0
  2188 ;;		On exit  : 0/0
  2189 ;;		Unchanged: 0/0
  2190 ;; Data sizes:     COMMON   BANK0   BANK1   BANK3   BANK2
  2191 ;;      Params:         8       0       0       0       0
  2192 ;;      Locals:         5       0       0       0       0
  2193 ;;      Temps:          1       0       0       0       0
  2194 ;;      Totals:        14       0       0       0       0
  2195 ;;Total ram usage:       14 bytes
  2196 ;; Hardware stack levels used:    1
  2197 ;; This function calls:
  2198 ;;		Nothing
  2199 ;; This function is called by:
  2200 ;;		_I2C_Master_Init
  2201 ;; This function uses a non-reentrant model
  2202 ;;
  2203                           
  2204                           
  2205                           ;psect for function ___lldiv
  2206  09ED                     ___lldiv:	
  2207  09ED                     l1742:	
  2208                           ;incstack = 0
  2209                           ; Regs used in ___lldiv: [wreg+status,2+status,0]
  2210                           
  2211  09ED  3000               	movlw	0
  2212  09EE  00FC               	movwf	___lldiv@quotient+3
  2213  09EF  3000               	movlw	0
  2214  09F0  00FB               	movwf	___lldiv@quotient+2
  2215  09F1  3000               	movlw	0
  2216  09F2  00FA               	movwf	___lldiv@quotient+1
  2217  09F3  3000               	movlw	0
  2218  09F4  00F9               	movwf	___lldiv@quotient
  2219  09F5  0873               	movf	___lldiv@divisor+3,w
  2220  09F6  0472               	iorwf	___lldiv@divisor+2,w
  2221  09F7  0471               	iorwf	___lldiv@divisor+1,w
  2222  09F8  0470               	iorwf	___lldiv@divisor,w
  2223  09F9  1903               	skipnz
  2224  09FA  29FC               	goto	u1791
  2225  09FB  29FD               	goto	u1790
  2226  09FC                     u1791:	
  2227  09FC  2A4A               	goto	l1762
  2228  09FD                     u1790:	
  2229  09FD                     l1744:	
  2230  09FD  01FD               	clrf	___lldiv@counter
  2231  09FE  0AFD               	incf	___lldiv@counter,f
  2232  09FF  2A0D               	goto	l1748
  2233  0A00                     l1746:	
  2234  0A00  3001               	movlw	1
  2235  0A01  00F8               	movwf	??___lldiv
  2236  0A02                     u1805:	
  2237  0A02  1003               	clrc
  2238  0A03  0DF0               	rlf	___lldiv@divisor,f
  2239  0A04  0DF1               	rlf	___lldiv@divisor+1,f
  2240  0A05  0DF2               	rlf	___lldiv@divisor+2,f
  2241  0A06  0DF3               	rlf	___lldiv@divisor+3,f
  2242  0A07  0BF8               	decfsz	??___lldiv,f
  2243  0A08  2A02               	goto	u1805
  2244  0A09  3001               	movlw	1
  2245  0A0A  00F8               	movwf	??___lldiv
  2246  0A0B  0878               	movf	??___lldiv,w
  2247  0A0C  07FD               	addwf	___lldiv@counter,f
  2248  0A0D                     l1748:	
  2249  0A0D  1FF3               	btfss	___lldiv@divisor+3,7
  2250  0A0E  2A10               	goto	u1811
  2251  0A0F  2A11               	goto	u1810
  2252  0A10                     u1811:	
  2253  0A10  2A00               	goto	l1746
  2254  0A11                     u1810:	
  2255  0A11                     l1750:	
  2256  0A11  3001               	movlw	1
  2257  0A12  00F8               	movwf	??___lldiv
  2258  0A13                     u1825:	
  2259  0A13  1003               	clrc
  2260  0A14  0DF9               	rlf	___lldiv@quotient,f
  2261  0A15  0DFA               	rlf	___lldiv@quotient+1,f
  2262  0A16  0DFB               	rlf	___lldiv@quotient+2,f
  2263  0A17  0DFC               	rlf	___lldiv@quotient+3,f
  2264  0A18  0BF8               	decfsz	??___lldiv,f
  2265  0A19  2A13               	goto	u1825
  2266  0A1A                     l1752:	
  2267  0A1A  0873               	movf	___lldiv@divisor+3,w
  2268  0A1B  0277               	subwf	___lldiv@dividend+3,w
  2269  0A1C  1D03               	skipz
  2270  0A1D  2A28               	goto	u1835
  2271  0A1E  0872               	movf	___lldiv@divisor+2,w
  2272  0A1F  0276               	subwf	___lldiv@dividend+2,w
  2273  0A20  1D03               	skipz
  2274  0A21  2A28               	goto	u1835
  2275  0A22  0871               	movf	___lldiv@divisor+1,w
  2276  0A23  0275               	subwf	___lldiv@dividend+1,w
  2277  0A24  1D03               	skipz
  2278  0A25  2A28               	goto	u1835
  2279  0A26  0870               	movf	___lldiv@divisor,w
  2280  0A27  0274               	subwf	___lldiv@dividend,w
  2281  0A28                     u1835:	
  2282  0A28  1C03               	skipc
  2283  0A29  2A2B               	goto	u1831
  2284  0A2A  2A2C               	goto	u1830
  2285  0A2B                     u1831:	
  2286  0A2B  2A3B               	goto	l1758
  2287  0A2C                     u1830:	
  2288  0A2C                     l1754:	
  2289  0A2C  0870               	movf	___lldiv@divisor,w
  2290  0A2D  02F4               	subwf	___lldiv@dividend,f
  2291  0A2E  0871               	movf	___lldiv@divisor+1,w
  2292  0A2F  1C03               	skipc
  2293  0A30  0F71               	incfsz	___lldiv@divisor+1,w
  2294  0A31  02F5               	subwf	___lldiv@dividend+1,f
  2295  0A32  0872               	movf	___lldiv@divisor+2,w
  2296  0A33  1C03               	skipc
  2297  0A34  0F72               	incfsz	___lldiv@divisor+2,w
  2298  0A35  02F6               	subwf	___lldiv@dividend+2,f
  2299  0A36  0873               	movf	___lldiv@divisor+3,w
  2300  0A37  1C03               	skipc
  2301  0A38  0F73               	incfsz	___lldiv@divisor+3,w
  2302  0A39  02F7               	subwf	___lldiv@dividend+3,f
  2303  0A3A                     l1756:	
  2304  0A3A  1479               	bsf	___lldiv@quotient,0
  2305  0A3B                     l1758:	
  2306  0A3B  3001               	movlw	1
  2307  0A3C                     u1845:	
  2308  0A3C  1003               	clrc
  2309  0A3D  0CF3               	rrf	___lldiv@divisor+3,f
  2310  0A3E  0CF2               	rrf	___lldiv@divisor+2,f
  2311  0A3F  0CF1               	rrf	___lldiv@divisor+1,f
  2312  0A40  0CF0               	rrf	___lldiv@divisor,f
  2313  0A41  3EFF               	addlw	-1
  2314  0A42  1D03               	skipz
  2315  0A43  2A3C               	goto	u1845
  2316  0A44                     l1760:	
  2317  0A44  3001               	movlw	1
  2318  0A45  02FD               	subwf	___lldiv@counter,f
  2319  0A46  1D03               	btfss	3,2
  2320  0A47  2A49               	goto	u1851
  2321  0A48  2A4A               	goto	u1850
  2322  0A49                     u1851:	
  2323  0A49  2A11               	goto	l1750
  2324  0A4A                     u1850:	
  2325  0A4A                     l1762:	
  2326  0A4A  087C               	movf	___lldiv@quotient+3,w
  2327  0A4B  00F3               	movwf	?___lldiv+3
  2328  0A4C  087B               	movf	___lldiv@quotient+2,w
  2329  0A4D  00F2               	movwf	?___lldiv+2
  2330  0A4E  087A               	movf	___lldiv@quotient+1,w
  2331  0A4F  00F1               	movwf	?___lldiv+1
  2332  0A50  0879               	movf	___lldiv@quotient,w
  2333  0A51  00F0               	movwf	?___lldiv
  2334  0A52                     l324:	
  2335  0A52  0008               	return
  2336  0A53                     __end_of___lldiv:	
  2337                           
  2338                           	psect	text6
  2339  0ACF                     __ptext6:	
  2340 ;; *************** function ___xxtofl *****************
  2341 ;; Defined at:
  2342 ;;		line 10 in file "C:\Program Files (x86)\Microchip\xc8\v2.10\pic\sources\c90\common\xxtofl.c"
  2343 ;; Parameters:    Size  Location     Type
  2344 ;;  sign            1    wreg     unsigned char 
  2345 ;;  val             4    6[COMMON] long 
  2346 ;; Auto vars:     Size  Location     Type
  2347 ;;  sign            1    0[BANK0 ] unsigned char 
  2348 ;;  arg             4    2[BANK0 ] unsigned long 
  2349 ;;  exp             1    1[BANK0 ] unsigned char 
  2350 ;; Return value:  Size  Location     Type
  2351 ;;                  4    6[COMMON] unsigned char 
  2352 ;; Registers used:
  2353 ;;		wreg, status,2, status,0
  2354 ;; Tracked objects:
  2355 ;;		On entry : 0/0
  2356 ;;		On exit  : 0/0
  2357 ;;		Unchanged: 0/0
  2358 ;; Data sizes:     COMMON   BANK0   BANK1   BANK3   BANK2
  2359 ;;      Params:         4       0       0       0       0
  2360 ;;      Locals:         0       6       0       0       0
  2361 ;;      Temps:          4       0       0       0       0
  2362 ;;      Totals:         8       6       0       0       0
  2363 ;;Total ram usage:       14 bytes
  2364 ;; Hardware stack levels used:    1
  2365 ;; This function calls:
  2366 ;;		Nothing
  2367 ;; This function is called by:
  2368 ;;		_main
  2369 ;; This function uses a non-reentrant model
  2370 ;;
  2371                           
  2372                           
  2373                           ;psect for function ___xxtofl
  2374  0ACF                     ___xxtofl:	
  2375                           
  2376                           ;incstack = 0
  2377                           ; Regs used in ___xxtofl: [wreg+status,2+status,0]
  2378                           ;___xxtofl@sign stored from wreg
  2379  0ACF  1283               	bcf	3,5	;RP0=0, select bank0
  2380  0AD0  1303               	bcf	3,6	;RP1=0, select bank0
  2381  0AD1  00A0               	movwf	___xxtofl@sign
  2382  0AD2                     l2500:	
  2383  0AD2  0820               	movf	___xxtofl@sign,w
  2384  0AD3  1903               	btfsc	3,2
  2385  0AD4  2AD6               	goto	u3401
  2386  0AD5  2AD7               	goto	u3400
  2387  0AD6                     u3401:	
  2388  0AD6  2AEB               	goto	l2506
  2389  0AD7                     u3400:	
  2390  0AD7                     l2502:	
  2391  0AD7  1FF9               	btfss	___xxtofl@val+3,7
  2392  0AD8  2ADA               	goto	u3411
  2393  0AD9  2ADB               	goto	u3410
  2394  0ADA                     u3411:	
  2395  0ADA  2AEB               	goto	l2506
  2396  0ADB                     u3410:	
  2397  0ADB                     l2504:	
  2398  0ADB  0976               	comf	___xxtofl@val,w
  2399  0ADC  00A2               	movwf	___xxtofl@arg
  2400  0ADD  0977               	comf	___xxtofl@val+1,w
  2401  0ADE  00A3               	movwf	___xxtofl@arg+1
  2402  0ADF  0978               	comf	___xxtofl@val+2,w
  2403  0AE0  00A4               	movwf	___xxtofl@arg+2
  2404  0AE1  0979               	comf	___xxtofl@val+3,w
  2405  0AE2  00A5               	movwf	___xxtofl@arg+3
  2406  0AE3  0AA2               	incf	___xxtofl@arg,f
  2407  0AE4  1903               	skipnz
  2408  0AE5  0AA3               	incf	___xxtofl@arg+1,f
  2409  0AE6  1903               	skipnz
  2410  0AE7  0AA4               	incf	___xxtofl@arg+2,f
  2411  0AE8  1903               	skipnz
  2412  0AE9  0AA5               	incf	___xxtofl@arg+3,f
  2413  0AEA  2AF3               	goto	l715
  2414  0AEB                     l2506:	
  2415  0AEB  0879               	movf	___xxtofl@val+3,w
  2416  0AEC  00A5               	movwf	___xxtofl@arg+3
  2417  0AED  0878               	movf	___xxtofl@val+2,w
  2418  0AEE  00A4               	movwf	___xxtofl@arg+2
  2419  0AEF  0877               	movf	___xxtofl@val+1,w
  2420  0AF0  00A3               	movwf	___xxtofl@arg+1
  2421  0AF1  0876               	movf	___xxtofl@val,w
  2422  0AF2  00A2               	movwf	___xxtofl@arg
  2423  0AF3                     l715:	
  2424  0AF3  0879               	movf	___xxtofl@val+3,w
  2425  0AF4  0478               	iorwf	___xxtofl@val+2,w
  2426  0AF5  0477               	iorwf	___xxtofl@val+1,w
  2427  0AF6  0476               	iorwf	___xxtofl@val,w
  2428  0AF7  1D03               	skipz
  2429  0AF8  2AFA               	goto	u3421
  2430  0AF9  2AFB               	goto	u3420
  2431  0AFA                     u3421:	
  2432  0AFA  2B04               	goto	l2512
  2433  0AFB                     u3420:	
  2434  0AFB                     l2508:	
  2435  0AFB  3000               	movlw	0
  2436  0AFC  00F9               	movwf	?___xxtofl+3
  2437  0AFD  3000               	movlw	0
  2438  0AFE  00F8               	movwf	?___xxtofl+2
  2439  0AFF  3000               	movlw	0
  2440  0B00  00F7               	movwf	?___xxtofl+1
  2441  0B01  3000               	movlw	0
  2442  0B02  00F6               	movwf	?___xxtofl
  2443  0B03  2B8A               	goto	l717
  2444  0B04                     l2512:	
  2445  0B04  3096               	movlw	150
  2446  0B05  00FA               	movwf	??___xxtofl
  2447  0B06  087A               	movf	??___xxtofl,w
  2448  0B07  00A1               	movwf	___xxtofl@exp
  2449  0B08  2B16               	goto	l2516
  2450  0B09                     l2514:	
  2451  0B09  3001               	movlw	1
  2452  0B0A  00FA               	movwf	??___xxtofl
  2453  0B0B  087A               	movf	??___xxtofl,w
  2454  0B0C  07A1               	addwf	___xxtofl@exp,f
  2455  0B0D  3001               	movlw	1
  2456  0B0E                     u3435:	
  2457  0B0E  1003               	clrc
  2458  0B0F  0CA5               	rrf	___xxtofl@arg+3,f
  2459  0B10  0CA4               	rrf	___xxtofl@arg+2,f
  2460  0B11  0CA3               	rrf	___xxtofl@arg+1,f
  2461  0B12  0CA2               	rrf	___xxtofl@arg,f
  2462  0B13  3EFF               	addlw	-1
  2463  0B14  1D03               	skipz
  2464  0B15  2B0E               	goto	u3435
  2465  0B16                     l2516:	
  2466  0B16  30FE               	movlw	254
  2467  0B17  0525               	andwf	___xxtofl@arg+3,w
  2468  0B18  1D03               	btfss	3,2
  2469  0B19  2B1B               	goto	u3441
  2470  0B1A  2B1C               	goto	u3440
  2471  0B1B                     u3441:	
  2472  0B1B  2B09               	goto	l2514
  2473  0B1C                     u3440:	
  2474  0B1C  2B38               	goto	l721
  2475  0B1D                     l2518:	
  2476  0B1D  3001               	movlw	1
  2477  0B1E  00FA               	movwf	??___xxtofl
  2478  0B1F  087A               	movf	??___xxtofl,w
  2479  0B20  07A1               	addwf	___xxtofl@exp,f
  2480  0B21                     l2520:	
  2481  0B21  3001               	movlw	1
  2482  0B22  07A2               	addwf	___xxtofl@arg,f
  2483  0B23  3000               	movlw	0
  2484  0B24  1803               	skipnc
  2485  0B25  3001               	movlw	1
  2486  0B26  07A3               	addwf	___xxtofl@arg+1,f
  2487  0B27  3000               	movlw	0
  2488  0B28  1803               	skipnc
  2489  0B29  3001               	movlw	1
  2490  0B2A  07A4               	addwf	___xxtofl@arg+2,f
  2491  0B2B  3000               	movlw	0
  2492  0B2C  1803               	skipnc
  2493  0B2D  3001               	movlw	1
  2494  0B2E  07A5               	addwf	___xxtofl@arg+3,f
  2495  0B2F                     l2522:	
  2496  0B2F  3001               	movlw	1
  2497  0B30                     u3455:	
  2498  0B30  1003               	clrc
  2499  0B31  0CA5               	rrf	___xxtofl@arg+3,f
  2500  0B32  0CA4               	rrf	___xxtofl@arg+2,f
  2501  0B33  0CA3               	rrf	___xxtofl@arg+1,f
  2502  0B34  0CA2               	rrf	___xxtofl@arg,f
  2503  0B35  3EFF               	addlw	-1
  2504  0B36  1D03               	skipz
  2505  0B37  2B30               	goto	u3455
  2506  0B38                     l721:	
  2507  0B38  30FF               	movlw	255
  2508  0B39  0525               	andwf	___xxtofl@arg+3,w
  2509  0B3A  1D03               	btfss	3,2
  2510  0B3B  2B3D               	goto	u3461
  2511  0B3C  2B3E               	goto	u3460
  2512  0B3D                     u3461:	
  2513  0B3D  2B1D               	goto	l2518
  2514  0B3E                     u3460:	
  2515  0B3E  2B4A               	goto	l2526
  2516  0B3F                     l2524:	
  2517  0B3F  3001               	movlw	1
  2518  0B40  02A1               	subwf	___xxtofl@exp,f
  2519  0B41  3001               	movlw	1
  2520  0B42  00FA               	movwf	??___xxtofl
  2521  0B43                     u3475:	
  2522  0B43  1003               	clrc
  2523  0B44  0DA2               	rlf	___xxtofl@arg,f
  2524  0B45  0DA3               	rlf	___xxtofl@arg+1,f
  2525  0B46  0DA4               	rlf	___xxtofl@arg+2,f
  2526  0B47  0DA5               	rlf	___xxtofl@arg+3,f
  2527  0B48  0BFA               	decfsz	??___xxtofl,f
  2528  0B49  2B43               	goto	u3475
  2529  0B4A                     l2526:	
  2530  0B4A  1BA4               	btfsc	___xxtofl@arg+2,7
  2531  0B4B  2B4D               	goto	u3481
  2532  0B4C  2B4E               	goto	u3480
  2533  0B4D                     u3481:	
  2534  0B4D  2B54               	goto	l728
  2535  0B4E                     u3480:	
  2536  0B4E                     l2528:	
  2537  0B4E  3002               	movlw	2
  2538  0B4F  0221               	subwf	___xxtofl@exp,w
  2539  0B50  1803               	skipnc
  2540  0B51  2B53               	goto	u3491
  2541  0B52  2B54               	goto	u3490
  2542  0B53                     u3491:	
  2543  0B53  2B3F               	goto	l2524
  2544  0B54                     u3490:	
  2545  0B54                     l728:	
  2546  0B54  1821               	btfsc	___xxtofl@exp,0
  2547  0B55  2B57               	goto	u3501
  2548  0B56  2B58               	goto	u3500
  2549  0B57                     u3501:	
  2550  0B57  2B60               	goto	l729
  2551  0B58                     u3500:	
  2552  0B58                     l2530:	
  2553  0B58  30FF               	movlw	255
  2554  0B59  05A2               	andwf	___xxtofl@arg,f
  2555  0B5A  30FF               	movlw	255
  2556  0B5B  05A3               	andwf	___xxtofl@arg+1,f
  2557  0B5C  307F               	movlw	127
  2558  0B5D  05A4               	andwf	___xxtofl@arg+2,f
  2559  0B5E  30FF               	movlw	255
  2560  0B5F  05A5               	andwf	___xxtofl@arg+3,f
  2561  0B60                     l729:	
  2562  0B60  1003               	clrc
  2563  0B61  0CA1               	rrf	___xxtofl@exp,f
  2564  0B62                     l2532:	
  2565  0B62  0821               	movf	___xxtofl@exp,w
  2566  0B63  00FA               	movwf	??___xxtofl
  2567  0B64  01FB               	clrf	??___xxtofl+1
  2568  0B65  01FC               	clrf	??___xxtofl+2
  2569  0B66  01FD               	clrf	??___xxtofl+3
  2570  0B67  3018               	movlw	24
  2571  0B68                     u3515:	
  2572  0B68  1003               	clrc
  2573  0B69  0DFA               	rlf	??___xxtofl,f
  2574  0B6A  0DFB               	rlf	??___xxtofl+1,f
  2575  0B6B  0DFC               	rlf	??___xxtofl+2,f
  2576  0B6C  0DFD               	rlf	??___xxtofl+3,f
  2577  0B6D                     u3510:	
  2578  0B6D  3EFF               	addlw	-1
  2579  0B6E  1D03               	skipz
  2580  0B6F  2B68               	goto	u3515
  2581  0B70  087A               	movf	??___xxtofl,w
  2582  0B71  04A2               	iorwf	___xxtofl@arg,f
  2583  0B72  087B               	movf	??___xxtofl+1,w
  2584  0B73  04A3               	iorwf	___xxtofl@arg+1,f
  2585  0B74  087C               	movf	??___xxtofl+2,w
  2586  0B75  04A4               	iorwf	___xxtofl@arg+2,f
  2587  0B76  087D               	movf	??___xxtofl+3,w
  2588  0B77  04A5               	iorwf	___xxtofl@arg+3,f
  2589  0B78                     l2534:	
  2590  0B78  0820               	movf	___xxtofl@sign,w
  2591  0B79  1903               	btfsc	3,2
  2592  0B7A  2B7C               	goto	u3521
  2593  0B7B  2B7D               	goto	u3520
  2594  0B7C                     u3521:	
  2595  0B7C  2B82               	goto	l2540
  2596  0B7D                     u3520:	
  2597  0B7D                     l2536:	
  2598  0B7D  1FF9               	btfss	___xxtofl@val+3,7
  2599  0B7E  2B80               	goto	u3531
  2600  0B7F  2B81               	goto	u3530
  2601  0B80                     u3531:	
  2602  0B80  2B82               	goto	l2540
  2603  0B81                     u3530:	
  2604  0B81                     l2538:	
  2605  0B81  17A5               	bsf	___xxtofl@arg+3,7
  2606  0B82                     l2540:	
  2607  0B82  0825               	movf	___xxtofl@arg+3,w
  2608  0B83  00F9               	movwf	?___xxtofl+3
  2609  0B84  0824               	movf	___xxtofl@arg+2,w
  2610  0B85  00F8               	movwf	?___xxtofl+2
  2611  0B86  0823               	movf	___xxtofl@arg+1,w
  2612  0B87  00F7               	movwf	?___xxtofl+1
  2613  0B88  0822               	movf	___xxtofl@arg,w
  2614  0B89  00F6               	movwf	?___xxtofl
  2615  0B8A                     l717:	
  2616  0B8A  0008               	return
  2617  0B8B                     __end_of___xxtofl:	
  2618                           
  2619                           	psect	text7
  2620  0A53                     __ptext7:	
  2621 ;; *************** function ___fltol *****************
  2622 ;; Defined at:
  2623 ;;		line 43 in file "C:\Program Files (x86)\Microchip\xc8\v2.10\pic\sources\c90\common\fltol.c"
  2624 ;; Parameters:    Size  Location     Type
  2625 ;;  f1              4   42[BANK0 ] unsigned char 
  2626 ;; Auto vars:     Size  Location     Type
  2627 ;;  exp1            1   52[BANK0 ] unsigned char 
  2628 ;;  sign1           1   51[BANK0 ] unsigned char 
  2629 ;; Return value:  Size  Location     Type
  2630 ;;                  4   42[BANK0 ] long 
  2631 ;; Registers used:
  2632 ;;		wreg, status,2, status,0
  2633 ;; Tracked objects:
  2634 ;;		On entry : 0/0
  2635 ;;		On exit  : 0/0
  2636 ;;		Unchanged: 0/0
  2637 ;; Data sizes:     COMMON   BANK0   BANK1   BANK3   BANK2
  2638 ;;      Params:         0       4       0       0       0
  2639 ;;      Locals:         0       2       0       0       0
  2640 ;;      Temps:          0       5       0       0       0
  2641 ;;      Totals:         0      11       0       0       0
  2642 ;;Total ram usage:       11 bytes
  2643 ;; Hardware stack levels used:    1
  2644 ;; This function calls:
  2645 ;;		Nothing
  2646 ;; This function is called by:
  2647 ;;		_main
  2648 ;; This function uses a non-reentrant model
  2649 ;;
  2650                           
  2651                           
  2652                           ;psect for function ___fltol
  2653  0A53                     ___fltol:	
  2654  0A53                     l2176:	
  2655                           ;incstack = 0
  2656                           ; Regs used in ___fltol: [wreg+status,2+status,0]
  2657                           
  2658  0A53  1003               	clrc
  2659  0A54  1283               	bcf	3,5	;RP0=0, select bank0
  2660  0A55  1303               	bcf	3,6	;RP1=0, select bank0
  2661  0A56  0D4C               	rlf	___fltol@f1+2,w
  2662  0A57  0D4D               	rlf	___fltol@f1+3,w
  2663  0A58  00CE               	movwf	??___fltol
  2664  0A59  084E               	movf	??___fltol,w
  2665  0A5A  00D4               	movwf	___fltol@exp1
  2666  0A5B  0854               	movf	___fltol@exp1,w
  2667  0A5C  1D03               	btfss	3,2
  2668  0A5D  2A5F               	goto	u2641
  2669  0A5E  2A60               	goto	u2640
  2670  0A5F                     u2641:	
  2671  0A5F  2A69               	goto	l2182
  2672  0A60                     u2640:	
  2673  0A60                     l2178:	
  2674  0A60  3000               	movlw	0
  2675  0A61  00CD               	movwf	?___fltol+3
  2676  0A62  3000               	movlw	0
  2677  0A63  00CC               	movwf	?___fltol+2
  2678  0A64  3000               	movlw	0
  2679  0A65  00CB               	movwf	?___fltol+1
  2680  0A66  3000               	movlw	0
  2681  0A67  00CA               	movwf	?___fltol
  2682  0A68  2ACE               	goto	l474
  2683  0A69                     l2182:	
  2684  0A69  084A               	movf	___fltol@f1,w
  2685  0A6A  00CE               	movwf	??___fltol
  2686  0A6B  084B               	movf	___fltol@f1+1,w
  2687  0A6C  00CF               	movwf	??___fltol+1
  2688  0A6D  084C               	movf	___fltol@f1+2,w
  2689  0A6E  00D0               	movwf	??___fltol+2
  2690  0A6F  084D               	movf	___fltol@f1+3,w
  2691  0A70  00D1               	movwf	??___fltol+3
  2692  0A71  301F               	movlw	31
  2693  0A72                     u2655:	
  2694  0A72  1003               	clrc
  2695  0A73  0CD1               	rrf	??___fltol+3,f
  2696  0A74  0CD0               	rrf	??___fltol+2,f
  2697  0A75  0CCF               	rrf	??___fltol+1,f
  2698  0A76  0CCE               	rrf	??___fltol,f
  2699  0A77                     u2650:	
  2700  0A77  3EFF               	addlw	-1
  2701  0A78  1D03               	skipz
  2702  0A79  2A72               	goto	u2655
  2703  0A7A  084E               	movf	??___fltol,w
  2704  0A7B  00D2               	movwf	??___fltol+4
  2705  0A7C  0852               	movf	??___fltol+4,w
  2706  0A7D  00D3               	movwf	___fltol@sign1
  2707  0A7E                     l2184:	
  2708  0A7E  17CC               	bsf	___fltol@f1+2,7
  2709  0A7F                     l2186:	
  2710  0A7F  30FF               	movlw	255
  2711  0A80  05CA               	andwf	___fltol@f1,f
  2712  0A81  30FF               	movlw	255
  2713  0A82  05CB               	andwf	___fltol@f1+1,f
  2714  0A83  30FF               	movlw	255
  2715  0A84  05CC               	andwf	___fltol@f1+2,f
  2716  0A85  3000               	movlw	0
  2717  0A86  05CD               	andwf	___fltol@f1+3,f
  2718  0A87                     l2188:	
  2719  0A87  3096               	movlw	150
  2720  0A88  02D4               	subwf	___fltol@exp1,f
  2721  0A89                     l2190:	
  2722  0A89  1FD4               	btfss	___fltol@exp1,7
  2723  0A8A  2A8C               	goto	u2661
  2724  0A8B  2A8D               	goto	u2660
  2725  0A8C                     u2661:	
  2726  0A8C  2AA7               	goto	l2200
  2727  0A8D                     u2660:	
  2728  0A8D                     l2192:	
  2729  0A8D  0854               	movf	___fltol@exp1,w
  2730  0A8E  3A80               	xorlw	128
  2731  0A8F  3E97               	addlw	151
  2732  0A90  1803               	skipnc
  2733  0A91  2A93               	goto	u2671
  2734  0A92  2A94               	goto	u2670
  2735  0A93                     u2671:	
  2736  0A93  2A95               	goto	l2198
  2737  0A94                     u2670:	
  2738  0A94  2A60               	goto	l2178
  2739  0A95                     l2198:	
  2740  0A95  3001               	movlw	1
  2741  0A96                     u2685:	
  2742  0A96  1003               	clrc
  2743  0A97  0CCD               	rrf	___fltol@f1+3,f
  2744  0A98  0CCC               	rrf	___fltol@f1+2,f
  2745  0A99  0CCB               	rrf	___fltol@f1+1,f
  2746  0A9A  0CCA               	rrf	___fltol@f1,f
  2747  0A9B  3EFF               	addlw	-1
  2748  0A9C  1D03               	skipz
  2749  0A9D  2A96               	goto	u2685
  2750  0A9E  3001               	movlw	1
  2751  0A9F  00CE               	movwf	??___fltol
  2752  0AA0  084E               	movf	??___fltol,w
  2753  0AA1  07D4               	addwf	___fltol@exp1,f
  2754  0AA2  1D03               	btfss	3,2
  2755  0AA3  2AA5               	goto	u2691
  2756  0AA4  2AA6               	goto	u2690
  2757  0AA5                     u2691:	
  2758  0AA5  2A95               	goto	l2198
  2759  0AA6                     u2690:	
  2760  0AA6  2ABE               	goto	l2208
  2761  0AA7                     l2200:	
  2762  0AA7  3020               	movlw	32
  2763  0AA8  0254               	subwf	___fltol@exp1,w
  2764  0AA9  1C03               	skipc
  2765  0AAA  2AAC               	goto	u2701
  2766  0AAB  2AAD               	goto	u2700
  2767  0AAC                     u2701:	
  2768  0AAC  2AB9               	goto	l481
  2769  0AAD                     u2700:	
  2770  0AAD  2A60               	goto	l2178
  2771  0AAE                     l2206:	
  2772  0AAE  3001               	movlw	1
  2773  0AAF  00CE               	movwf	??___fltol
  2774  0AB0                     u2715:	
  2775  0AB0  1003               	clrc
  2776  0AB1  0DCA               	rlf	___fltol@f1,f
  2777  0AB2  0DCB               	rlf	___fltol@f1+1,f
  2778  0AB3  0DCC               	rlf	___fltol@f1+2,f
  2779  0AB4  0DCD               	rlf	___fltol@f1+3,f
  2780  0AB5  0BCE               	decfsz	??___fltol,f
  2781  0AB6  2AB0               	goto	u2715
  2782  0AB7  3001               	movlw	1
  2783  0AB8  02D4               	subwf	___fltol@exp1,f
  2784  0AB9                     l481:	
  2785  0AB9  0854               	movf	___fltol@exp1,w
  2786  0ABA  1D03               	btfss	3,2
  2787  0ABB  2ABD               	goto	u2721
  2788  0ABC  2ABE               	goto	u2720
  2789  0ABD                     u2721:	
  2790  0ABD  2AAE               	goto	l2206
  2791  0ABE                     u2720:	
  2792  0ABE                     l2208:	
  2793  0ABE  0853               	movf	___fltol@sign1,w
  2794  0ABF  1903               	btfsc	3,2
  2795  0AC0  2AC2               	goto	u2731
  2796  0AC1  2AC3               	goto	u2730
  2797  0AC2                     u2731:	
  2798  0AC2  2ACE               	goto	l484
  2799  0AC3                     u2730:	
  2800  0AC3                     l2210:	
  2801  0AC3  09CA               	comf	___fltol@f1,f
  2802  0AC4  09CB               	comf	___fltol@f1+1,f
  2803  0AC5  09CC               	comf	___fltol@f1+2,f
  2804  0AC6  09CD               	comf	___fltol@f1+3,f
  2805  0AC7  0ACA               	incf	___fltol@f1,f
  2806  0AC8  1903               	skipnz
  2807  0AC9  0ACB               	incf	___fltol@f1+1,f
  2808  0ACA  1903               	skipnz
  2809  0ACB  0ACC               	incf	___fltol@f1+2,f
  2810  0ACC  1903               	skipnz
  2811  0ACD  0ACD               	incf	___fltol@f1+3,f
  2812  0ACE                     l484:	
  2813  0ACE                     l474:	
  2814  0ACE  0008               	return
  2815  0ACF                     __end_of___fltol:	
  2816                           
  2817                           	psect	text8
  2818  0849                     __ptext8:	
  2819 ;; *************** function ___flsub *****************
  2820 ;; Defined at:
  2821 ;;		line 242 in file "C:\Program Files (x86)\Microchip\xc8\v2.10\pic\sources\c90\common\sprcadd.c"
  2822 ;; Parameters:    Size  Location     Type
  2823 ;;  a               4    8[BANK0 ] long 
  2824 ;;  b               4   12[BANK0 ] long 
  2825 ;; Auto vars:     Size  Location     Type
  2826 ;;		None
  2827 ;; Return value:  Size  Location     Type
  2828 ;;                  4    8[BANK0 ] long 
  2829 ;; Registers used:
  2830 ;;		wreg, status,2, status,0, btemp+1, pclath, cstack
  2831 ;; Tracked objects:
  2832 ;;		On entry : 0/0
  2833 ;;		On exit  : 0/0
  2834 ;;		Unchanged: 0/0
  2835 ;; Data sizes:     COMMON   BANK0   BANK1   BANK3   BANK2
  2836 ;;      Params:         0       8       0       0       0
  2837 ;;      Locals:         0       0       0       0       0
  2838 ;;      Temps:          0       0       0       0       0
  2839 ;;      Totals:         0       8       0       0       0
  2840 ;;Total ram usage:        8 bytes
  2841 ;; Hardware stack levels used:    1
  2842 ;; Hardware stack levels required when called:    1
  2843 ;; This function calls:
  2844 ;;		___fladd
  2845 ;; This function is called by:
  2846 ;;		_main
  2847 ;; This function uses a non-reentrant model
  2848 ;;
  2849                           
  2850                           
  2851                           ;psect for function ___flsub
  2852  0849                     ___flsub:	
  2853  0849                     l2212:	
  2854                           ;incstack = 0
  2855                           ; Regs used in ___flsub: [wreg+status,2+status,0+btemp+1+pclath+cstack]
  2856                           
  2857  0849  3080               	movlw	128
  2858  084A  1283               	bcf	3,5	;RP0=0, select bank0
  2859  084B  1303               	bcf	3,6	;RP1=0, select bank0
  2860  084C  06AB               	xorwf	___flsub@a+3,f
  2861  084D                     l2214:	
  2862  084D  082F               	movf	___flsub@b+3,w
  2863  084E  00F3               	movwf	___fladd@b+3
  2864  084F  082E               	movf	___flsub@b+2,w
  2865  0850  00F2               	movwf	___fladd@b+2
  2866  0851  082D               	movf	___flsub@b+1,w
  2867  0852  00F1               	movwf	___fladd@b+1
  2868  0853  082C               	movf	___flsub@b,w
  2869  0854  00F0               	movwf	___fladd@b
  2870  0855  082B               	movf	___flsub@a+3,w
  2871  0856  00F7               	movwf	___fladd@a+3
  2872  0857  082A               	movf	___flsub@a+2,w
  2873  0858  00F6               	movwf	___fladd@a+2
  2874  0859  0829               	movf	___flsub@a+1,w
  2875  085A  00F5               	movwf	___fladd@a+1
  2876  085B  0828               	movf	___flsub@a,w
  2877  085C  00F4               	movwf	___fladd@a
  2878  085D  120A  158A  2568  120A  158A  	fcall	___fladd
  2879  0862  0873               	movf	?___fladd+3,w
  2880  0863  1283               	bcf	3,5	;RP0=0, select bank0
  2881  0864  1303               	bcf	3,6	;RP1=0, select bank0
  2882  0865  00AB               	movwf	?___flsub+3
  2883  0866  0872               	movf	?___fladd+2,w
  2884  0867  00AA               	movwf	?___flsub+2
  2885  0868  0871               	movf	?___fladd+1,w
  2886  0869  00A9               	movwf	?___flsub+1
  2887  086A  0870               	movf	?___fladd,w
  2888  086B  00A8               	movwf	?___flsub
  2889  086C                     l627:	
  2890  086C  0008               	return
  2891  086D                     __end_of___flsub:	
  2892                           
  2893                           	psect	text9
  2894  0D68                     __ptext9:	
  2895 ;; *************** function ___fladd *****************
  2896 ;; Defined at:
  2897 ;;		line 10 in file "C:\Program Files (x86)\Microchip\xc8\v2.10\pic\sources\c90\common\sprcadd.c"
  2898 ;; Parameters:    Size  Location     Type
  2899 ;;  b               4    0[COMMON] long 
  2900 ;;  a               4    4[COMMON] long 
  2901 ;; Auto vars:     Size  Location     Type
  2902 ;;  grs             1   11[COMMON] unsigned char 
  2903 ;;  bexp            1   10[COMMON] unsigned char 
  2904 ;;  aexp            1    9[COMMON] unsigned char 
  2905 ;;  signs           1    8[COMMON] unsigned char 
  2906 ;; Return value:  Size  Location     Type
  2907 ;;                  4    0[COMMON] unsigned char 
  2908 ;; Registers used:
  2909 ;;		wreg, status,2, status,0, btemp+1
  2910 ;; Tracked objects:
  2911 ;;		On entry : 0/0
  2912 ;;		On exit  : 0/0
  2913 ;;		Unchanged: 0/0
  2914 ;; Data sizes:     COMMON   BANK0   BANK1   BANK3   BANK2
  2915 ;;      Params:         8       0       0       0       0
  2916 ;;      Locals:         4       0       0       0       0
  2917 ;;      Temps:          0       8       0       0       0
  2918 ;;      Totals:        12       8       0       0       0
  2919 ;;Total ram usage:       20 bytes
  2920 ;; Hardware stack levels used:    1
  2921 ;; This function calls:
  2922 ;;		Nothing
  2923 ;; This function is called by:
  2924 ;;		___flsub
  2925 ;; This function uses a non-reentrant model
  2926 ;;
  2927                           
  2928                           
  2929                           ;psect for function ___fladd
  2930  0D68                     ___fladd:	
  2931  0D68                     l1922:	
  2932                           ;incstack = 0
  2933                           ; Regs used in ___fladd: [wreg+status,2+status,0+btemp+1]
  2934                           
  2935  0D68  0873               	movf	___fladd@b+3,w
  2936  0D69  3980               	andlw	128
  2937  0D6A  1283               	bcf	3,5	;RP0=0, select bank0
  2938  0D6B  1303               	bcf	3,6	;RP1=0, select bank0
  2939  0D6C  00A0               	movwf	??___fladd
  2940  0D6D  0820               	movf	??___fladd,w
  2941  0D6E  00F8               	movwf	___fladd@signs
  2942  0D6F                     l1924:	
  2943  0D6F  0873               	movf	___fladd@b+3,w
  2944  0D70  00A0               	movwf	??___fladd
  2945  0D71  0720               	addwf	??___fladd,w
  2946  0D72  00A1               	movwf	??___fladd+1
  2947  0D73  0821               	movf	??___fladd+1,w
  2948  0D74  00FA               	movwf	___fladd@bexp
  2949  0D75                     l1926:	
  2950  0D75  1FF2               	btfss	___fladd@b+2,7
  2951  0D76  2D78               	goto	u2121
  2952  0D77  2D79               	goto	u2120
  2953  0D78                     u2121:	
  2954  0D78  2D7A               	goto	l1930
  2955  0D79                     u2120:	
  2956  0D79                     l1928:	
  2957  0D79  147A               	bsf	___fladd@bexp,0
  2958  0D7A                     l1930:	
  2959  0D7A  087A               	movf	___fladd@bexp,w
  2960  0D7B  1903               	btfsc	3,2
  2961  0D7C  2D7E               	goto	u2131
  2962  0D7D  2D7F               	goto	u2130
  2963  0D7E                     u2131:	
  2964  0D7E  2D8F               	goto	l1940
  2965  0D7F                     u2130:	
  2966  0D7F                     l1932:	
  2967  0D7F  0A7A               	incf	___fladd@bexp,w
  2968  0D80  1D03               	btfss	3,2
  2969  0D81  2D83               	goto	u2141
  2970  0D82  2D84               	goto	u2140
  2971  0D83                     u2141:	
  2972  0D83  2D8C               	goto	l1936
  2973  0D84                     u2140:	
  2974  0D84                     l1934:	
  2975  0D84  3000               	movlw	0
  2976  0D85  00F3               	movwf	___fladd@b+3
  2977  0D86  3000               	movlw	0
  2978  0D87  00F2               	movwf	___fladd@b+2
  2979  0D88  3000               	movlw	0
  2980  0D89  00F1               	movwf	___fladd@b+1
  2981  0D8A  3000               	movlw	0
  2982  0D8B  00F0               	movwf	___fladd@b
  2983  0D8C                     l1936:	
  2984  0D8C  17F2               	bsf	___fladd@b+2,7
  2985  0D8D                     l1938:	
  2986  0D8D  01F3               	clrf	___fladd@b+3
  2987  0D8E  2D97               	goto	l1942
  2988  0D8F                     l1940:	
  2989  0D8F  3000               	movlw	0
  2990  0D90  00F3               	movwf	___fladd@b+3
  2991  0D91  3000               	movlw	0
  2992  0D92  00F2               	movwf	___fladd@b+2
  2993  0D93  3000               	movlw	0
  2994  0D94  00F1               	movwf	___fladd@b+1
  2995  0D95  3000               	movlw	0
  2996  0D96  00F0               	movwf	___fladd@b
  2997  0D97                     l1942:	
  2998  0D97  0877               	movf	___fladd@a+3,w
  2999  0D98  3980               	andlw	128
  3000  0D99  00A0               	movwf	??___fladd
  3001  0D9A  0820               	movf	??___fladd,w
  3002  0D9B  00F9               	movwf	___fladd@aexp
  3003  0D9C                     l1944:	
  3004  0D9C  0879               	movf	___fladd@aexp,w
  3005  0D9D  0678               	xorwf	___fladd@signs,w
  3006  0D9E  1903               	skipnz
  3007  0D9F  2DA1               	goto	u2151
  3008  0DA0  2DA2               	goto	u2150
  3009  0DA1                     u2151:	
  3010  0DA1  2DA3               	goto	l1948
  3011  0DA2                     u2150:	
  3012  0DA2                     l1946:	
  3013  0DA2  1778               	bsf	___fladd@signs,6
  3014  0DA3                     l1948:	
  3015  0DA3  0877               	movf	___fladd@a+3,w
  3016  0DA4  00A0               	movwf	??___fladd
  3017  0DA5  0720               	addwf	??___fladd,w
  3018  0DA6  00A1               	movwf	??___fladd+1
  3019  0DA7  0821               	movf	??___fladd+1,w
  3020  0DA8  00F9               	movwf	___fladd@aexp
  3021  0DA9                     l1950:	
  3022  0DA9  1FF6               	btfss	___fladd@a+2,7
  3023  0DAA  2DAC               	goto	u2161
  3024  0DAB  2DAD               	goto	u2160
  3025  0DAC                     u2161:	
  3026  0DAC  2DAE               	goto	l1954
  3027  0DAD                     u2160:	
  3028  0DAD                     l1952:	
  3029  0DAD  1479               	bsf	___fladd@aexp,0
  3030  0DAE                     l1954:	
  3031  0DAE  0879               	movf	___fladd@aexp,w
  3032  0DAF  1903               	btfsc	3,2
  3033  0DB0  2DB2               	goto	u2171
  3034  0DB1  2DB3               	goto	u2170
  3035  0DB2                     u2171:	
  3036  0DB2  2DC3               	goto	l1964
  3037  0DB3                     u2170:	
  3038  0DB3                     l1956:	
  3039  0DB3  0A79               	incf	___fladd@aexp,w
  3040  0DB4  1D03               	btfss	3,2
  3041  0DB5  2DB7               	goto	u2181
  3042  0DB6  2DB8               	goto	u2180
  3043  0DB7                     u2181:	
  3044  0DB7  2DC0               	goto	l1960
  3045  0DB8                     u2180:	
  3046  0DB8                     l1958:	
  3047  0DB8  3000               	movlw	0
  3048  0DB9  00F7               	movwf	___fladd@a+3
  3049  0DBA  3000               	movlw	0
  3050  0DBB  00F6               	movwf	___fladd@a+2
  3051  0DBC  3000               	movlw	0
  3052  0DBD  00F5               	movwf	___fladd@a+1
  3053  0DBE  3000               	movlw	0
  3054  0DBF  00F4               	movwf	___fladd@a
  3055  0DC0                     l1960:	
  3056  0DC0  17F6               	bsf	___fladd@a+2,7
  3057  0DC1                     l1962:	
  3058  0DC1  01F7               	clrf	___fladd@a+3
  3059  0DC2  2DCB               	goto	l581
  3060  0DC3                     l1964:	
  3061  0DC3  3000               	movlw	0
  3062  0DC4  00F7               	movwf	___fladd@a+3
  3063  0DC5  3000               	movlw	0
  3064  0DC6  00F6               	movwf	___fladd@a+2
  3065  0DC7  3000               	movlw	0
  3066  0DC8  00F5               	movwf	___fladd@a+1
  3067  0DC9  3000               	movlw	0
  3068  0DCA  00F4               	movwf	___fladd@a
  3069  0DCB                     l581:	
  3070  0DCB  087A               	movf	___fladd@bexp,w
  3071  0DCC  0279               	subwf	___fladd@aexp,w
  3072  0DCD  1803               	skipnc
  3073  0DCE  2DD0               	goto	u2191
  3074  0DCF  2DD1               	goto	u2190
  3075  0DD0                     u2191:	
  3076  0DD0  2E15               	goto	l2000
  3077  0DD1                     u2190:	
  3078  0DD1                     l1966:	
  3079  0DD1  1F78               	btfss	___fladd@signs,6
  3080  0DD2  2DD4               	goto	u2201
  3081  0DD3  2DD5               	goto	u2200
  3082  0DD4                     u2201:	
  3083  0DD4  2DD9               	goto	l1970
  3084  0DD5                     u2200:	
  3085  0DD5                     l1968:	
  3086  0DD5  3080               	movlw	128
  3087  0DD6  00A0               	movwf	??___fladd
  3088  0DD7  0820               	movf	??___fladd,w
  3089  0DD8  06F8               	xorwf	___fladd@signs,f
  3090  0DD9                     l1970:	
  3091  0DD9  087A               	movf	___fladd@bexp,w
  3092  0DDA  00A0               	movwf	??___fladd
  3093  0DDB  0820               	movf	??___fladd,w
  3094  0DDC  00FB               	movwf	___fladd@grs
  3095  0DDD                     l1972:	
  3096  0DDD  0879               	movf	___fladd@aexp,w
  3097  0DDE  00A0               	movwf	??___fladd
  3098  0DDF  0820               	movf	??___fladd,w
  3099  0DE0  00FA               	movwf	___fladd@bexp
  3100  0DE1                     l1974:	
  3101  0DE1  087B               	movf	___fladd@grs,w
  3102  0DE2  00A0               	movwf	??___fladd
  3103  0DE3  0820               	movf	??___fladd,w
  3104  0DE4  00F9               	movwf	___fladd@aexp
  3105  0DE5                     l1976:	
  3106  0DE5  0870               	movf	___fladd@b,w
  3107  0DE6  00A0               	movwf	??___fladd
  3108  0DE7  0820               	movf	??___fladd,w
  3109  0DE8  00FB               	movwf	___fladd@grs
  3110  0DE9                     l1978:	
  3111  0DE9  0874               	movf	___fladd@a,w
  3112  0DEA  00A0               	movwf	??___fladd
  3113  0DEB  0820               	movf	??___fladd,w
  3114  0DEC  00F0               	movwf	___fladd@b
  3115  0DED                     l1980:	
  3116  0DED  087B               	movf	___fladd@grs,w
  3117  0DEE  00A0               	movwf	??___fladd
  3118  0DEF  0820               	movf	??___fladd,w
  3119  0DF0  00F4               	movwf	___fladd@a
  3120  0DF1                     l1982:	
  3121  0DF1  0871               	movf	___fladd@b+1,w
  3122  0DF2  00A0               	movwf	??___fladd
  3123  0DF3  0820               	movf	??___fladd,w
  3124  0DF4  00FB               	movwf	___fladd@grs
  3125  0DF5                     l1984:	
  3126  0DF5  0875               	movf	___fladd@a+1,w
  3127  0DF6  00A0               	movwf	??___fladd
  3128  0DF7  0820               	movf	??___fladd,w
  3129  0DF8  00F1               	movwf	___fladd@b+1
  3130  0DF9                     l1986:	
  3131  0DF9  087B               	movf	___fladd@grs,w
  3132  0DFA  00A0               	movwf	??___fladd
  3133  0DFB  0820               	movf	??___fladd,w
  3134  0DFC  00F5               	movwf	___fladd@a+1
  3135  0DFD                     l1988:	
  3136  0DFD  0872               	movf	___fladd@b+2,w
  3137  0DFE  00A0               	movwf	??___fladd
  3138  0DFF  0820               	movf	??___fladd,w
  3139  0E00  00FB               	movwf	___fladd@grs
  3140  0E01                     l1990:	
  3141  0E01  0876               	movf	___fladd@a+2,w
  3142  0E02  00A0               	movwf	??___fladd
  3143  0E03  0820               	movf	??___fladd,w
  3144  0E04  00F2               	movwf	___fladd@b+2
  3145  0E05                     l1992:	
  3146  0E05  087B               	movf	___fladd@grs,w
  3147  0E06  00A0               	movwf	??___fladd
  3148  0E07  0820               	movf	??___fladd,w
  3149  0E08  00F6               	movwf	___fladd@a+2
  3150  0E09                     l1994:	
  3151  0E09  0873               	movf	___fladd@b+3,w
  3152  0E0A  00A0               	movwf	??___fladd
  3153  0E0B  0820               	movf	??___fladd,w
  3154  0E0C  00FB               	movwf	___fladd@grs
  3155  0E0D                     l1996:	
  3156  0E0D  0877               	movf	___fladd@a+3,w
  3157  0E0E  00A0               	movwf	??___fladd
  3158  0E0F  0820               	movf	??___fladd,w
  3159  0E10  00F3               	movwf	___fladd@b+3
  3160  0E11                     l1998:	
  3161  0E11  087B               	movf	___fladd@grs,w
  3162  0E12  00A0               	movwf	??___fladd
  3163  0E13  0820               	movf	??___fladd,w
  3164  0E14  00F7               	movwf	___fladd@a+3
  3165  0E15                     l2000:	
  3166  0E15  01FB               	clrf	___fladd@grs
  3167  0E16                     l2002:	
  3168  0E16  0879               	movf	___fladd@aexp,w
  3169  0E17  00A0               	movwf	??___fladd
  3170  0E18  01A1               	clrf	??___fladd+1
  3171  0E19  0821               	movf	??___fladd+1,w
  3172  0E1A  00A3               	movwf	??___fladd+3
  3173  0E1B  087A               	movf	___fladd@bexp,w
  3174  0E1C  0220               	subwf	??___fladd,w
  3175  0E1D  00A2               	movwf	??___fladd+2
  3176  0E1E  1C03               	skipc
  3177  0E1F  03A3               	decf	??___fladd+3,f
  3178  0E20  0823               	movf	??___fladd+3,w
  3179  0E21  3A80               	xorlw	128
  3180  0E22  00FF               	movwf	btemp+1
  3181  0E23  3080               	movlw	128
  3182  0E24  027F               	subwf	btemp+1,w
  3183  0E25  1D03               	skipz
  3184  0E26  2E29               	goto	u2215
  3185  0E27  301A               	movlw	26
  3186  0E28  0222               	subwf	??___fladd+2,w
  3187  0E29                     u2215:	
  3188  0E29  1C03               	skipc
  3189  0E2A  2E2C               	goto	u2211
  3190  0E2B  2E2D               	goto	u2210
  3191  0E2C                     u2211:	
  3192  0E2C  2E6E               	goto	l2018
  3193  0E2D                     u2210:	
  3194  0E2D                     l2004:	
  3195  0E2D  0873               	movf	___fladd@b+3,w
  3196  0E2E  0472               	iorwf	___fladd@b+2,w
  3197  0E2F  0471               	iorwf	___fladd@b+1,w
  3198  0E30  0470               	iorwf	___fladd@b,w
  3199  0E31  1D03               	skipz
  3200  0E32  2E34               	goto	u2221
  3201  0E33  2E36               	goto	u2220
  3202  0E34                     u2221:	
  3203  0E34  3001               	movlw	1
  3204  0E35  2E37               	goto	u2230
  3205  0E36                     u2220:	
  3206  0E36  3000               	movlw	0
  3207  0E37                     u2230:	
  3208  0E37  1283               	bcf	3,5	;RP0=0, select bank0
  3209  0E38  1303               	bcf	3,6	;RP1=0, select bank0
  3210  0E39  00A0               	movwf	??___fladd
  3211  0E3A  0820               	movf	??___fladd,w
  3212  0E3B  00FB               	movwf	___fladd@grs
  3213  0E3C  3000               	movlw	0
  3214  0E3D  00F3               	movwf	___fladd@b+3
  3215  0E3E  3000               	movlw	0
  3216  0E3F  00F2               	movwf	___fladd@b+2
  3217  0E40  3000               	movlw	0
  3218  0E41  00F1               	movwf	___fladd@b+1
  3219  0E42  3000               	movlw	0
  3220  0E43  00F0               	movwf	___fladd@b
  3221  0E44  0879               	movf	___fladd@aexp,w
  3222  0E45  00A0               	movwf	??___fladd
  3223  0E46  0820               	movf	??___fladd,w
  3224  0E47  00FA               	movwf	___fladd@bexp
  3225  0E48  2E74               	goto	l585
  3226  0E49                     l587:	
  3227  0E49  1C7B               	btfss	___fladd@grs,0
  3228  0E4A  2E4C               	goto	u2241
  3229  0E4B  2E4D               	goto	u2240
  3230  0E4C                     u2241:	
  3231  0E4C  2E58               	goto	l2008
  3232  0E4D                     u2240:	
  3233  0E4D                     l2006:	
  3234  0E4D  087B               	movf	___fladd@grs,w
  3235  0E4E  1283               	bcf	3,5	;RP0=0, select bank0
  3236  0E4F  1303               	bcf	3,6	;RP1=0, select bank0
  3237  0E50  00A0               	movwf	??___fladd
  3238  0E51  1003               	clrc
  3239  0E52  0C20               	rrf	??___fladd,w
  3240  0E53  3801               	iorlw	1
  3241  0E54  00A1               	movwf	??___fladd+1
  3242  0E55  0821               	movf	??___fladd+1,w
  3243  0E56  00FB               	movwf	___fladd@grs
  3244  0E57  2E5A               	goto	l2010
  3245  0E58                     l2008:	
  3246  0E58  1003               	clrc
  3247  0E59  0CFB               	rrf	___fladd@grs,f
  3248  0E5A                     l2010:	
  3249  0E5A  1C70               	btfss	___fladd@b,0
  3250  0E5B  2E5D               	goto	u2251
  3251  0E5C  2E5E               	goto	u2250
  3252  0E5D                     u2251:	
  3253  0E5D  2E5F               	goto	l2014
  3254  0E5E                     u2250:	
  3255  0E5E                     l2012:	
  3256  0E5E  17FB               	bsf	___fladd@grs,7
  3257  0E5F                     l2014:	
  3258  0E5F  3001               	movlw	1
  3259  0E60  1283               	bcf	3,5	;RP0=0, select bank0
  3260  0E61  1303               	bcf	3,6	;RP1=0, select bank0
  3261  0E62  00A0               	movwf	??___fladd
  3262  0E63                     u2265:	
  3263  0E63  0D73               	rlf	___fladd@b+3,w
  3264  0E64  0CF3               	rrf	___fladd@b+3,f
  3265  0E65  0CF2               	rrf	___fladd@b+2,f
  3266  0E66  0CF1               	rrf	___fladd@b+1,f
  3267  0E67  0CF0               	rrf	___fladd@b,f
  3268  0E68  0BA0               	decfsz	??___fladd& (0+127),f
  3269  0E69  2E63               	goto	u2265
  3270  0E6A                     l2016:	
  3271  0E6A  3001               	movlw	1
  3272  0E6B  00A0               	movwf	??___fladd
  3273  0E6C  0820               	movf	??___fladd,w
  3274  0E6D  07FA               	addwf	___fladd@bexp,f
  3275  0E6E                     l2018:	
  3276  0E6E  0879               	movf	___fladd@aexp,w
  3277  0E6F  027A               	subwf	___fladd@bexp,w
  3278  0E70  1C03               	skipc
  3279  0E71  2E73               	goto	u2271
  3280  0E72  2E74               	goto	u2270
  3281  0E73                     u2271:	
  3282  0E73  2E49               	goto	l587
  3283  0E74                     u2270:	
  3284  0E74                     l585:	
  3285  0E74  1B78               	btfsc	___fladd@signs,6
  3286  0E75  2E77               	goto	u2281
  3287  0E76  2E78               	goto	u2280
  3288  0E77                     u2281:	
  3289  0E77  2EC7               	goto	l2044
  3290  0E78                     u2280:	
  3291  0E78                     l2020:	
  3292  0E78  087A               	movf	___fladd@bexp,w
  3293  0E79  1D03               	btfss	3,2
  3294  0E7A  2E7C               	goto	u2291
  3295  0E7B  2E7D               	goto	u2290
  3296  0E7C                     u2291:	
  3297  0E7C  2E86               	goto	l2026
  3298  0E7D                     u2290:	
  3299  0E7D                     l2022:	
  3300  0E7D  3000               	movlw	0
  3301  0E7E  00F3               	movwf	?___fladd+3
  3302  0E7F  3000               	movlw	0
  3303  0E80  00F2               	movwf	?___fladd+2
  3304  0E81  3000               	movlw	0
  3305  0E82  00F1               	movwf	?___fladd+1
  3306  0E83  3000               	movlw	0
  3307  0E84  00F0               	movwf	?___fladd
  3308  0E85  2FFF               	goto	l594
  3309  0E86                     l2026:	
  3310  0E86  0874               	movf	___fladd@a,w
  3311  0E87  07F0               	addwf	___fladd@b,f
  3312  0E88  0875               	movf	___fladd@a+1,w
  3313  0E89  1103               	clrz
  3314  0E8A  1803               	skipnc
  3315  0E8B  3E01               	addlw	1
  3316  0E8C  1903               	skipnz
  3317  0E8D  2E8F               	goto	u2301
  3318  0E8E  07F1               	addwf	___fladd@b+1,f
  3319  0E8F                     u2301:	
  3320  0E8F  0876               	movf	___fladd@a+2,w
  3321  0E90  1103               	clrz
  3322  0E91  1803               	skipnc
  3323  0E92  3E01               	addlw	1
  3324  0E93  1903               	skipnz
  3325  0E94  2E96               	goto	u2302
  3326  0E95  07F2               	addwf	___fladd@b+2,f
  3327  0E96                     u2302:	
  3328  0E96  0877               	movf	___fladd@a+3,w
  3329  0E97  1103               	clrz
  3330  0E98  1803               	skipnc
  3331  0E99  3E01               	addlw	1
  3332  0E9A  1903               	skipnz
  3333  0E9B  2E9D               	goto	u2303
  3334  0E9C  07F3               	addwf	___fladd@b+3,f
  3335  0E9D                     u2303:	
  3336  0E9D                     l2028:	
  3337  0E9D  1C73               	btfss	___fladd@b+3,0
  3338  0E9E  2EA0               	goto	u2311
  3339  0E9F  2EA1               	goto	u2310
  3340  0EA0                     u2311:	
  3341  0EA0  2F7F               	goto	l2078
  3342  0EA1                     u2310:	
  3343  0EA1                     l2030:	
  3344  0EA1  1C7B               	btfss	___fladd@grs,0
  3345  0EA2  2EA4               	goto	u2321
  3346  0EA3  2EA5               	goto	u2320
  3347  0EA4                     u2321:	
  3348  0EA4  2EB0               	goto	l2034
  3349  0EA5                     u2320:	
  3350  0EA5                     l2032:	
  3351  0EA5  087B               	movf	___fladd@grs,w
  3352  0EA6  1283               	bcf	3,5	;RP0=0, select bank0
  3353  0EA7  1303               	bcf	3,6	;RP1=0, select bank0
  3354  0EA8  00A0               	movwf	??___fladd
  3355  0EA9  1003               	clrc
  3356  0EAA  0C20               	rrf	??___fladd,w
  3357  0EAB  3801               	iorlw	1
  3358  0EAC  00A1               	movwf	??___fladd+1
  3359  0EAD  0821               	movf	??___fladd+1,w
  3360  0EAE  00FB               	movwf	___fladd@grs
  3361  0EAF  2EB2               	goto	l2036
  3362  0EB0                     l2034:	
  3363  0EB0  1003               	clrc
  3364  0EB1  0CFB               	rrf	___fladd@grs,f
  3365  0EB2                     l2036:	
  3366  0EB2  1C70               	btfss	___fladd@b,0
  3367  0EB3  2EB5               	goto	u2331
  3368  0EB4  2EB6               	goto	u2330
  3369  0EB5                     u2331:	
  3370  0EB5  2EB7               	goto	l2040
  3371  0EB6                     u2330:	
  3372  0EB6                     l2038:	
  3373  0EB6  17FB               	bsf	___fladd@grs,7
  3374  0EB7                     l2040:	
  3375  0EB7  3001               	movlw	1
  3376  0EB8  1283               	bcf	3,5	;RP0=0, select bank0
  3377  0EB9  1303               	bcf	3,6	;RP1=0, select bank0
  3378  0EBA  00A0               	movwf	??___fladd
  3379  0EBB                     u2345:	
  3380  0EBB  0D73               	rlf	___fladd@b+3,w
  3381  0EBC  0CF3               	rrf	___fladd@b+3,f
  3382  0EBD  0CF2               	rrf	___fladd@b+2,f
  3383  0EBE  0CF1               	rrf	___fladd@b+1,f
  3384  0EBF  0CF0               	rrf	___fladd@b,f
  3385  0EC0  0BA0               	decfsz	??___fladd& (0+127),f
  3386  0EC1  2EBB               	goto	u2345
  3387  0EC2                     l2042:	
  3388  0EC2  3001               	movlw	1
  3389  0EC3  00A0               	movwf	??___fladd
  3390  0EC4  0820               	movf	??___fladd,w
  3391  0EC5  07FA               	addwf	___fladd@bexp,f
  3392  0EC6  2F7F               	goto	l2078
  3393  0EC7                     l2044:	
  3394  0EC7  0873               	movf	___fladd@b+3,w
  3395  0EC8  3A80               	xorlw	128
  3396  0EC9  00FF               	movwf	btemp+1
  3397  0ECA  0877               	movf	___fladd@a+3,w
  3398  0ECB  3A80               	xorlw	128
  3399  0ECC  027F               	subwf	btemp+1,w
  3400  0ECD  1D03               	skipz
  3401  0ECE  2ED9               	goto	u2353
  3402  0ECF  0876               	movf	___fladd@a+2,w
  3403  0ED0  0272               	subwf	___fladd@b+2,w
  3404  0ED1  1D03               	skipz
  3405  0ED2  2ED9               	goto	u2353
  3406  0ED3  0875               	movf	___fladd@a+1,w
  3407  0ED4  0271               	subwf	___fladd@b+1,w
  3408  0ED5  1D03               	skipz
  3409  0ED6  2ED9               	goto	u2353
  3410  0ED7  0874               	movf	___fladd@a,w
  3411  0ED8  0270               	subwf	___fladd@b,w
  3412  0ED9                     u2353:	
  3413  0ED9  1803               	skipnc
  3414  0EDA  2EDC               	goto	u2351
  3415  0EDB  2EDD               	goto	u2350
  3416  0EDC                     u2351:	
  3417  0EDC  2F37               	goto	l2054
  3418  0EDD                     u2350:	
  3419  0EDD                     l2046:	
  3420  0EDD  30FF               	movlw	255
  3421  0EDE  1283               	bcf	3,5	;RP0=0, select bank0
  3422  0EDF  1303               	bcf	3,6	;RP1=0, select bank0
  3423  0EE0  00A0               	movwf	??___fladd
  3424  0EE1  30FF               	movlw	255
  3425  0EE2  00A1               	movwf	??___fladd+1
  3426  0EE3  30FF               	movlw	255
  3427  0EE4  00A2               	movwf	??___fladd+2
  3428  0EE5  30FF               	movlw	255
  3429  0EE6  00A3               	movwf	??___fladd+3
  3430  0EE7  0874               	movf	___fladd@a,w
  3431  0EE8  00A4               	movwf	??___fladd+4
  3432  0EE9  0875               	movf	___fladd@a+1,w
  3433  0EEA  00A5               	movwf	??___fladd+5
  3434  0EEB  0876               	movf	___fladd@a+2,w
  3435  0EEC  00A6               	movwf	??___fladd+6
  3436  0EED  0877               	movf	___fladd@a+3,w
  3437  0EEE  00A7               	movwf	??___fladd+7
  3438  0EEF  0870               	movf	___fladd@b,w
  3439  0EF0  02A4               	subwf	??___fladd+4,f
  3440  0EF1  0871               	movf	___fladd@b+1,w
  3441  0EF2  1C03               	skipc
  3442  0EF3  0F71               	incfsz	___fladd@b+1,w
  3443  0EF4  2EF6               	goto	u2361
  3444  0EF5  2EF7               	goto	u2362
  3445  0EF6                     u2361:	
  3446  0EF6  02A5               	subwf	??___fladd+5,f
  3447  0EF7                     u2362:	
  3448  0EF7  0872               	movf	___fladd@b+2,w
  3449  0EF8  1C03               	skipc
  3450  0EF9  0F72               	incfsz	___fladd@b+2,w
  3451  0EFA  2EFC               	goto	u2363
  3452  0EFB  2EFD               	goto	u2364
  3453  0EFC                     u2363:	
  3454  0EFC  02A6               	subwf	??___fladd+6,f
  3455  0EFD                     u2364:	
  3456  0EFD  0873               	movf	___fladd@b+3,w
  3457  0EFE  1C03               	skipc
  3458  0EFF  0F73               	incfsz	___fladd@b+3,w
  3459  0F00  2F02               	goto	u2365
  3460  0F01  2F03               	goto	u2366
  3461  0F02                     u2365:	
  3462  0F02  02A7               	subwf	??___fladd+7,f
  3463  0F03                     u2366:	
  3464  0F03  0824               	movf	??___fladd+4,w
  3465  0F04  07A0               	addwf	??___fladd,f
  3466  0F05  0825               	movf	??___fladd+5,w
  3467  0F06  1803               	skipnc
  3468  0F07  0F25               	incfsz	??___fladd+5,w
  3469  0F08  2F0A               	goto	u2370
  3470  0F09  2F0B               	goto	u2371
  3471  0F0A                     u2370:	
  3472  0F0A  07A1               	addwf	??___fladd+1,f
  3473  0F0B                     u2371:	
  3474  0F0B  0826               	movf	??___fladd+6,w
  3475  0F0C  1803               	skipnc
  3476  0F0D  0F26               	incfsz	??___fladd+6,w
  3477  0F0E  2F10               	goto	u2372
  3478  0F0F  2F11               	goto	u2373
  3479  0F10                     u2372:	
  3480  0F10  07A2               	addwf	??___fladd+2,f
  3481  0F11                     u2373:	
  3482  0F11  0827               	movf	??___fladd+7,w
  3483  0F12  1803               	skipnc
  3484  0F13  0A27               	incf	??___fladd+7,w
  3485  0F14  07A3               	addwf	??___fladd+3,f
  3486  0F15  0823               	movf	??___fladd+3,w
  3487  0F16  00F3               	movwf	___fladd@b+3
  3488  0F17  0822               	movf	??___fladd+2,w
  3489  0F18  00F2               	movwf	___fladd@b+2
  3490  0F19  0821               	movf	??___fladd+1,w
  3491  0F1A  00F1               	movwf	___fladd@b+1
  3492  0F1B  0820               	movf	??___fladd,w
  3493  0F1C  00F0               	movwf	___fladd@b
  3494  0F1D                     l2048:	
  3495  0F1D  3080               	movlw	128
  3496  0F1E  00A0               	movwf	??___fladd
  3497  0F1F  0820               	movf	??___fladd,w
  3498  0F20  06F8               	xorwf	___fladd@signs,f
  3499  0F21  09FB               	comf	___fladd@grs,f
  3500  0F22  0AFB               	incf	___fladd@grs,f
  3501  0F23                     l2050:	
  3502  0F23  087B               	movf	___fladd@grs,w
  3503  0F24  1D03               	btfss	3,2
  3504  0F25  2F27               	goto	u2381
  3505  0F26  2F28               	goto	u2380
  3506  0F27                     u2381:	
  3507  0F27  2F45               	goto	l602
  3508  0F28                     u2380:	
  3509  0F28                     l2052:	
  3510  0F28  3001               	movlw	1
  3511  0F29  07F0               	addwf	___fladd@b,f
  3512  0F2A  3000               	movlw	0
  3513  0F2B  1803               	skipnc
  3514  0F2C  3001               	movlw	1
  3515  0F2D  07F1               	addwf	___fladd@b+1,f
  3516  0F2E  3000               	movlw	0
  3517  0F2F  1803               	skipnc
  3518  0F30  3001               	movlw	1
  3519  0F31  07F2               	addwf	___fladd@b+2,f
  3520  0F32  3000               	movlw	0
  3521  0F33  1803               	skipnc
  3522  0F34  3001               	movlw	1
  3523  0F35  07F3               	addwf	___fladd@b+3,f
  3524  0F36  2F45               	goto	l602
  3525  0F37                     l2054:	
  3526  0F37  0874               	movf	___fladd@a,w
  3527  0F38  02F0               	subwf	___fladd@b,f
  3528  0F39  0875               	movf	___fladd@a+1,w
  3529  0F3A  1C03               	skipc
  3530  0F3B  0F75               	incfsz	___fladd@a+1,w
  3531  0F3C  02F1               	subwf	___fladd@b+1,f
  3532  0F3D  0876               	movf	___fladd@a+2,w
  3533  0F3E  1C03               	skipc
  3534  0F3F  0F76               	incfsz	___fladd@a+2,w
  3535  0F40  02F2               	subwf	___fladd@b+2,f
  3536  0F41  0877               	movf	___fladd@a+3,w
  3537  0F42  1C03               	skipc
  3538  0F43  0F77               	incfsz	___fladd@a+3,w
  3539  0F44  02F3               	subwf	___fladd@b+3,f
  3540  0F45                     l602:	
  3541  0F45  0873               	movf	___fladd@b+3,w
  3542  0F46  0472               	iorwf	___fladd@b+2,w
  3543  0F47  0471               	iorwf	___fladd@b+1,w
  3544  0F48  0470               	iorwf	___fladd@b,w
  3545  0F49  1D03               	skipz
  3546  0F4A  2F4C               	goto	u2391
  3547  0F4B  2F4D               	goto	u2390
  3548  0F4C                     u2391:	
  3549  0F4C  2F7B               	goto	l2076
  3550  0F4D                     u2390:	
  3551  0F4D                     l2056:	
  3552  0F4D  087B               	movf	___fladd@grs,w
  3553  0F4E  1D03               	btfss	3,2
  3554  0F4F  2F51               	goto	u2401
  3555  0F50  2F52               	goto	u2400
  3556  0F51                     u2401:	
  3557  0F51  2F7B               	goto	l2076
  3558  0F52                     u2400:	
  3559  0F52                     l2058:	
  3560  0F52  3000               	movlw	0
  3561  0F53  00F3               	movwf	?___fladd+3
  3562  0F54  3000               	movlw	0
  3563  0F55  00F2               	movwf	?___fladd+2
  3564  0F56  3000               	movlw	0
  3565  0F57  00F1               	movwf	?___fladd+1
  3566  0F58  3000               	movlw	0
  3567  0F59  00F0               	movwf	?___fladd
  3568  0F5A  2FFF               	goto	l594
  3569  0F5B                     l2062:	
  3570  0F5B  3001               	movlw	1
  3571  0F5C  1283               	bcf	3,5	;RP0=0, select bank0
  3572  0F5D  1303               	bcf	3,6	;RP1=0, select bank0
  3573  0F5E  00A0               	movwf	??___fladd
  3574  0F5F                     u2415:	
  3575  0F5F  1003               	clrc
  3576  0F60  0DF0               	rlf	___fladd@b,f
  3577  0F61  0DF1               	rlf	___fladd@b+1,f
  3578  0F62  0DF2               	rlf	___fladd@b+2,f
  3579  0F63  0DF3               	rlf	___fladd@b+3,f
  3580  0F64  0BA0               	decfsz	??___fladd,f
  3581  0F65  2F5F               	goto	u2415
  3582  0F66                     l2064:	
  3583  0F66  1FFB               	btfss	___fladd@grs,7
  3584  0F67  2F69               	goto	u2421
  3585  0F68  2F6A               	goto	u2420
  3586  0F69                     u2421:	
  3587  0F69  2F6B               	goto	l606
  3588  0F6A                     u2420:	
  3589  0F6A                     l2066:	
  3590  0F6A  1470               	bsf	___fladd@b,0
  3591  0F6B                     l606:	
  3592  0F6B  1C7B               	btfss	___fladd@grs,0
  3593  0F6C  2F6E               	goto	u2431
  3594  0F6D  2F6F               	goto	u2430
  3595  0F6E                     u2431:	
  3596  0F6E  2F72               	goto	l2070
  3597  0F6F                     u2430:	
  3598  0F6F                     l2068:	
  3599  0F6F  1403               	setc
  3600  0F70  0DFB               	rlf	___fladd@grs,f
  3601  0F71  2F74               	goto	l2072
  3602  0F72                     l2070:	
  3603  0F72  1003               	clrc
  3604  0F73  0DFB               	rlf	___fladd@grs,f
  3605  0F74                     l2072:	
  3606  0F74  087A               	movf	___fladd@bexp,w
  3607  0F75  1903               	btfsc	3,2
  3608  0F76  2F78               	goto	u2441
  3609  0F77  2F79               	goto	u2440
  3610  0F78                     u2441:	
  3611  0F78  2F7B               	goto	l2076
  3612  0F79                     u2440:	
  3613  0F79                     l2074:	
  3614  0F79  3001               	movlw	1
  3615  0F7A  02FA               	subwf	___fladd@bexp,f
  3616  0F7B                     l2076:	
  3617  0F7B  1FF2               	btfss	___fladd@b+2,7
  3618  0F7C  2F7E               	goto	u2451
  3619  0F7D  2F7F               	goto	u2450
  3620  0F7E                     u2451:	
  3621  0F7E  2F5B               	goto	l2062
  3622  0F7F                     u2450:	
  3623  0F7F                     l2078:	
  3624  0F7F  01F9               	clrf	___fladd@aexp
  3625  0F80                     l2080:	
  3626  0F80  1FFB               	btfss	___fladd@grs,7
  3627  0F81  2F83               	goto	u2461
  3628  0F82  2F84               	goto	u2460
  3629  0F83                     u2461:	
  3630  0F83  2F92               	goto	l2088
  3631  0F84                     u2460:	
  3632  0F84                     l2082:	
  3633  0F84  087B               	movf	___fladd@grs,w
  3634  0F85  397F               	andlw	127
  3635  0F86  1903               	btfsc	3,2
  3636  0F87  2F89               	goto	u2471
  3637  0F88  2F8A               	goto	u2470
  3638  0F89                     u2471:	
  3639  0F89  2F8D               	goto	l612
  3640  0F8A                     u2470:	
  3641  0F8A                     l2084:	
  3642  0F8A  01F9               	clrf	___fladd@aexp
  3643  0F8B  0AF9               	incf	___fladd@aexp,f
  3644  0F8C  2F92               	goto	l2088
  3645  0F8D                     l612:	
  3646  0F8D  1C70               	btfss	___fladd@b,0
  3647  0F8E  2F90               	goto	u2481
  3648  0F8F  2F91               	goto	u2480
  3649  0F90                     u2481:	
  3650  0F90  2F92               	goto	l2088
  3651  0F91                     u2480:	
  3652  0F91  2F8A               	goto	l2084
  3653  0F92                     l2088:	
  3654  0F92  0879               	movf	___fladd@aexp,w
  3655  0F93  1903               	btfsc	3,2
  3656  0F94  2F96               	goto	u2491
  3657  0F95  2F97               	goto	u2490
  3658  0F96                     u2491:	
  3659  0F96  2FCD               	goto	l615
  3660  0F97                     u2490:	
  3661  0F97                     l2090:	
  3662  0F97  3001               	movlw	1
  3663  0F98  07F0               	addwf	___fladd@b,f
  3664  0F99  3000               	movlw	0
  3665  0F9A  1803               	skipnc
  3666  0F9B  3001               	movlw	1
  3667  0F9C  07F1               	addwf	___fladd@b+1,f
  3668  0F9D  3000               	movlw	0
  3669  0F9E  1803               	skipnc
  3670  0F9F  3001               	movlw	1
  3671  0FA0  07F2               	addwf	___fladd@b+2,f
  3672  0FA1  3000               	movlw	0
  3673  0FA2  1803               	skipnc
  3674  0FA3  3001               	movlw	1
  3675  0FA4  07F3               	addwf	___fladd@b+3,f
  3676  0FA5                     l2092:	
  3677  0FA5  1C73               	btfss	___fladd@b+3,0
  3678  0FA6  2FA8               	goto	u2501
  3679  0FA7  2FA9               	goto	u2500
  3680  0FA8                     u2501:	
  3681  0FA8  2FCD               	goto	l615
  3682  0FA9                     u2500:	
  3683  0FA9                     l2094:	
  3684  0FA9  0870               	movf	___fladd@b,w
  3685  0FAA  1283               	bcf	3,5	;RP0=0, select bank0
  3686  0FAB  1303               	bcf	3,6	;RP1=0, select bank0
  3687  0FAC  00A0               	movwf	??___fladd
  3688  0FAD  0871               	movf	___fladd@b+1,w
  3689  0FAE  00A1               	movwf	??___fladd+1
  3690  0FAF  0872               	movf	___fladd@b+2,w
  3691  0FB0  00A2               	movwf	??___fladd+2
  3692  0FB1  0873               	movf	___fladd@b+3,w
  3693  0FB2  00A3               	movwf	??___fladd+3
  3694  0FB3  3001               	movlw	1
  3695  0FB4  00A4               	movwf	??___fladd+4
  3696  0FB5                     u2515:	
  3697  0FB5  0D23               	rlf	??___fladd+3,w
  3698  0FB6  0CA3               	rrf	??___fladd+3,f
  3699  0FB7  0CA2               	rrf	??___fladd+2,f
  3700  0FB8  0CA1               	rrf	??___fladd+1,f
  3701  0FB9  0CA0               	rrf	??___fladd,f
  3702  0FBA                     u2510:	
  3703  0FBA  0BA4               	decfsz	??___fladd+4,f
  3704  0FBB  2FB5               	goto	u2515
  3705  0FBC  0823               	movf	??___fladd+3,w
  3706  0FBD  00F3               	movwf	___fladd@b+3
  3707  0FBE  0822               	movf	??___fladd+2,w
  3708  0FBF  00F2               	movwf	___fladd@b+2
  3709  0FC0  0821               	movf	??___fladd+1,w
  3710  0FC1  00F1               	movwf	___fladd@b+1
  3711  0FC2  0820               	movf	??___fladd,w
  3712  0FC3  00F0               	movwf	___fladd@b
  3713  0FC4  0A7A               	incf	___fladd@bexp,w
  3714  0FC5  1903               	btfsc	3,2
  3715  0FC6  2FC8               	goto	u2521
  3716  0FC7  2FC9               	goto	u2520
  3717  0FC8                     u2521:	
  3718  0FC8  2FCD               	goto	l615
  3719  0FC9                     u2520:	
  3720  0FC9                     l2096:	
  3721  0FC9  3001               	movlw	1
  3722  0FCA  00A0               	movwf	??___fladd
  3723  0FCB  0820               	movf	??___fladd,w
  3724  0FCC  07FA               	addwf	___fladd@bexp,f
  3725  0FCD                     l615:	
  3726  0FCD  0A7A               	incf	___fladd@bexp,w
  3727  0FCE  1903               	btfsc	3,2
  3728  0FCF  2FD1               	goto	u2531
  3729  0FD0  2FD2               	goto	u2530
  3730  0FD1                     u2531:	
  3731  0FD1  2FD7               	goto	l2100
  3732  0FD2                     u2530:	
  3733  0FD2                     l2098:	
  3734  0FD2  087A               	movf	___fladd@bexp,w
  3735  0FD3  1D03               	btfss	3,2
  3736  0FD4  2FD6               	goto	u2541
  3737  0FD5  2FD7               	goto	u2540
  3738  0FD6                     u2541:	
  3739  0FD6  2FE5               	goto	l2106
  3740  0FD7                     u2540:	
  3741  0FD7                     l2100:	
  3742  0FD7  3000               	movlw	0
  3743  0FD8  00F3               	movwf	___fladd@b+3
  3744  0FD9  3000               	movlw	0
  3745  0FDA  00F2               	movwf	___fladd@b+2
  3746  0FDB  3000               	movlw	0
  3747  0FDC  00F1               	movwf	___fladd@b+1
  3748  0FDD  3000               	movlw	0
  3749  0FDE  00F0               	movwf	___fladd@b
  3750  0FDF                     l2102:	
  3751  0FDF  087A               	movf	___fladd@bexp,w
  3752  0FE0  1D03               	btfss	3,2
  3753  0FE1  2FE3               	goto	u2551
  3754  0FE2  2FE4               	goto	u2550
  3755  0FE3                     u2551:	
  3756  0FE3  2FE5               	goto	l2106
  3757  0FE4                     u2550:	
  3758  0FE4                     l2104:	
  3759  0FE4  01F8               	clrf	___fladd@signs
  3760  0FE5                     l2106:	
  3761  0FE5  1C7A               	btfss	___fladd@bexp,0
  3762  0FE6  2FE8               	goto	u2561
  3763  0FE7  2FE9               	goto	u2560
  3764  0FE8                     u2561:	
  3765  0FE8  2FEB               	goto	l2110
  3766  0FE9                     u2560:	
  3767  0FE9                     l2108:	
  3768  0FE9  17F2               	bsf	___fladd@b+2,7
  3769  0FEA  2FF1               	goto	l623
  3770  0FEB                     l2110:	
  3771  0FEB  307F               	movlw	127
  3772  0FEC  1283               	bcf	3,5	;RP0=0, select bank0
  3773  0FED  1303               	bcf	3,6	;RP1=0, select bank0
  3774  0FEE  00A0               	movwf	??___fladd
  3775  0FEF  0820               	movf	??___fladd,w
  3776  0FF0  05F2               	andwf	___fladd@b+2,f
  3777  0FF1                     l623:	
  3778  0FF1  087A               	movf	___fladd@bexp,w
  3779  0FF2  1283               	bcf	3,5	;RP0=0, select bank0
  3780  0FF3  1303               	bcf	3,6	;RP1=0, select bank0
  3781  0FF4  00A0               	movwf	??___fladd
  3782  0FF5  1003               	clrc
  3783  0FF6  0C20               	rrf	??___fladd,w
  3784  0FF7  00A1               	movwf	??___fladd+1
  3785  0FF8  0821               	movf	??___fladd+1,w
  3786  0FF9  00F3               	movwf	___fladd@b+3
  3787  0FFA                     l2112:	
  3788  0FFA  1FF8               	btfss	___fladd@signs,7
  3789  0FFB  2FFD               	goto	u2571
  3790  0FFC  2FFE               	goto	u2570
  3791  0FFD                     u2571:	
  3792  0FFD  2FFF               	goto	l624
  3793  0FFE                     u2570:	
  3794  0FFE                     l2114:	
  3795  0FFE  17F3               	bsf	___fladd@b+3,7
  3796  0FFF                     l624:	
  3797  0FFF                     l594:	
  3798  0FFF  0008               	return
  3799  1000                     __end_of___fladd:	
  3800                           
  3801                           	psect	text10
  3802  0485                     __ptext10:	
  3803 ;; *************** function ___flmul *****************
  3804 ;; Defined at:
  3805 ;;		line 8 in file "C:\Program Files (x86)\Microchip\xc8\v2.10\pic\sources\c90\common\sprcmul.c"
  3806 ;; Parameters:    Size  Location     Type
  3807 ;;  b               4   16[BANK0 ] unsigned char 
  3808 ;;  a               4   20[BANK0 ] unsigned char 
  3809 ;; Auto vars:     Size  Location     Type
  3810 ;;  prod            4   36[BANK0 ] struct .
  3811 ;;  grs             4   30[BANK0 ] unsigned long 
  3812 ;;  temp            2   40[BANK0 ] struct .
  3813 ;;  bexp            1   35[BANK0 ] unsigned char 
  3814 ;;  aexp            1   34[BANK0 ] unsigned char 
  3815 ;;  sign            1   29[BANK0 ] unsigned char 
  3816 ;; Return value:  Size  Location     Type
  3817 ;;                  4   16[BANK0 ] unsigned char 
  3818 ;; Registers used:
  3819 ;;		wreg, status,2, status,0, btemp+1, pclath, cstack
  3820 ;; Tracked objects:
  3821 ;;		On entry : 0/0
  3822 ;;		On exit  : 0/0
  3823 ;;		Unchanged: 0/0
  3824 ;; Data sizes:     COMMON   BANK0   BANK1   BANK3   BANK2
  3825 ;;      Params:         0       8       0       0       0
  3826 ;;      Locals:         0      13       0       0       0
  3827 ;;      Temps:          0       5       0       0       0
  3828 ;;      Totals:         0      26       0       0       0
  3829 ;;Total ram usage:       26 bytes
  3830 ;; Hardware stack levels used:    1
  3831 ;; Hardware stack levels required when called:    1
  3832 ;; This function calls:
  3833 ;;		__Umul8_16
  3834 ;; This function is called by:
  3835 ;;		_main
  3836 ;; This function uses a non-reentrant model
  3837 ;;
  3838                           
  3839                           
  3840                           ;psect for function ___flmul
  3841  0485                     ___flmul:	
  3842  0485                     l2360:	
  3843                           ;incstack = 0
  3844                           ; Regs used in ___flmul: [wreg+status,2+status,0+btemp+1+pclath+cstack]
  3845                           
  3846  0485  1283               	bcf	3,5	;RP0=0, select bank0
  3847  0486  1303               	bcf	3,6	;RP1=0, select bank0
  3848  0487  0833               	movf	___flmul@b+3,w
  3849  0488  3980               	andlw	128
  3850  0489  00B8               	movwf	??___flmul
  3851  048A  0838               	movf	??___flmul,w
  3852  048B  00BD               	movwf	___flmul@sign
  3853  048C                     l2362:	
  3854  048C  0833               	movf	___flmul@b+3,w
  3855  048D  00B8               	movwf	??___flmul
  3856  048E  0738               	addwf	??___flmul,w
  3857  048F  00B9               	movwf	??___flmul+1
  3858  0490  0839               	movf	??___flmul+1,w
  3859  0491  00C3               	movwf	___flmul@bexp
  3860  0492                     l2364:	
  3861  0492  1FB2               	btfss	___flmul@b+2,7
  3862  0493  2C95               	goto	u3031
  3863  0494  2C96               	goto	u3030
  3864  0495                     u3031:	
  3865  0495  2C97               	goto	l2368
  3866  0496                     u3030:	
  3867  0496                     l2366:	
  3868  0496  1443               	bsf	___flmul@bexp,0
  3869  0497                     l2368:	
  3870  0497  0843               	movf	___flmul@bexp,w
  3871  0498  1903               	btfsc	3,2
  3872  0499  2C9B               	goto	u3041
  3873  049A  2C9C               	goto	u3040
  3874  049B                     u3041:	
  3875  049B  2CAB               	goto	l2376
  3876  049C                     u3040:	
  3877  049C                     l2370:	
  3878  049C  0A43               	incf	___flmul@bexp,w
  3879  049D  1D03               	btfss	3,2
  3880  049E  2CA0               	goto	u3051
  3881  049F  2CA1               	goto	u3050
  3882  04A0                     u3051:	
  3883  04A0  2CA9               	goto	l2374
  3884  04A1                     u3050:	
  3885  04A1                     l2372:	
  3886  04A1  3000               	movlw	0
  3887  04A2  00B3               	movwf	___flmul@b+3
  3888  04A3  3000               	movlw	0
  3889  04A4  00B2               	movwf	___flmul@b+2
  3890  04A5  3000               	movlw	0
  3891  04A6  00B1               	movwf	___flmul@b+1
  3892  04A7  3000               	movlw	0
  3893  04A8  00B0               	movwf	___flmul@b
  3894  04A9                     l2374:	
  3895  04A9  17B2               	bsf	___flmul@b+2,7
  3896  04AA  2CB3               	goto	l2378
  3897  04AB                     l2376:	
  3898  04AB  3000               	movlw	0
  3899  04AC  00B3               	movwf	___flmul@b+3
  3900  04AD  3000               	movlw	0
  3901  04AE  00B2               	movwf	___flmul@b+2
  3902  04AF  3000               	movlw	0
  3903  04B0  00B1               	movwf	___flmul@b+1
  3904  04B1  3000               	movlw	0
  3905  04B2  00B0               	movwf	___flmul@b
  3906  04B3                     l2378:	
  3907  04B3  0837               	movf	___flmul@a+3,w
  3908  04B4  3980               	andlw	128
  3909  04B5  00B8               	movwf	??___flmul
  3910  04B6  0838               	movf	??___flmul,w
  3911  04B7  06BD               	xorwf	___flmul@sign,f
  3912  04B8                     l2380:	
  3913  04B8  0837               	movf	___flmul@a+3,w
  3914  04B9  00B8               	movwf	??___flmul
  3915  04BA  0738               	addwf	??___flmul,w
  3916  04BB  00B9               	movwf	??___flmul+1
  3917  04BC  0839               	movf	??___flmul+1,w
  3918  04BD  00C2               	movwf	___flmul@aexp
  3919  04BE                     l2382:	
  3920  04BE  1FB6               	btfss	___flmul@a+2,7
  3921  04BF  2CC1               	goto	u3061
  3922  04C0  2CC2               	goto	u3060
  3923  04C1                     u3061:	
  3924  04C1  2CC3               	goto	l2386
  3925  04C2                     u3060:	
  3926  04C2                     l2384:	
  3927  04C2  1442               	bsf	___flmul@aexp,0
  3928  04C3                     l2386:	
  3929  04C3  0842               	movf	___flmul@aexp,w
  3930  04C4  1903               	btfsc	3,2
  3931  04C5  2CC7               	goto	u3071
  3932  04C6  2CC8               	goto	u3070
  3933  04C7                     u3071:	
  3934  04C7  2CD7               	goto	l2394
  3935  04C8                     u3070:	
  3936  04C8                     l2388:	
  3937  04C8  0A42               	incf	___flmul@aexp,w
  3938  04C9  1D03               	btfss	3,2
  3939  04CA  2CCC               	goto	u3081
  3940  04CB  2CCD               	goto	u3080
  3941  04CC                     u3081:	
  3942  04CC  2CD5               	goto	l2392
  3943  04CD                     u3080:	
  3944  04CD                     l2390:	
  3945  04CD  3000               	movlw	0
  3946  04CE  00B7               	movwf	___flmul@a+3
  3947  04CF  3000               	movlw	0
  3948  04D0  00B6               	movwf	___flmul@a+2
  3949  04D1  3000               	movlw	0
  3950  04D2  00B5               	movwf	___flmul@a+1
  3951  04D3  3000               	movlw	0
  3952  04D4  00B4               	movwf	___flmul@a
  3953  04D5                     l2392:	
  3954  04D5  17B6               	bsf	___flmul@a+2,7
  3955  04D6  2CDF               	goto	l2396
  3956  04D7                     l2394:	
  3957  04D7  3000               	movlw	0
  3958  04D8  00B7               	movwf	___flmul@a+3
  3959  04D9  3000               	movlw	0
  3960  04DA  00B6               	movwf	___flmul@a+2
  3961  04DB  3000               	movlw	0
  3962  04DC  00B5               	movwf	___flmul@a+1
  3963  04DD  3000               	movlw	0
  3964  04DE  00B4               	movwf	___flmul@a
  3965  04DF                     l2396:	
  3966  04DF  0842               	movf	___flmul@aexp,w
  3967  04E0  1903               	btfsc	3,2
  3968  04E1  2CE3               	goto	u3091
  3969  04E2  2CE4               	goto	u3090
  3970  04E3                     u3091:	
  3971  04E3  2CE9               	goto	l2400
  3972  04E4                     u3090:	
  3973  04E4                     l2398:	
  3974  04E4  0843               	movf	___flmul@bexp,w
  3975  04E5  1D03               	btfss	3,2
  3976  04E6  2CE8               	goto	u3101
  3977  04E7  2CE9               	goto	u3100
  3978  04E8                     u3101:	
  3979  04E8  2CF2               	goto	l2404
  3980  04E9                     u3100:	
  3981  04E9                     l2400:	
  3982  04E9  3000               	movlw	0
  3983  04EA  00B3               	movwf	?___flmul+3
  3984  04EB  3000               	movlw	0
  3985  04EC  00B2               	movwf	?___flmul+2
  3986  04ED  3000               	movlw	0
  3987  04EE  00B1               	movwf	?___flmul+1
  3988  04EF  3000               	movlw	0
  3989  04F0  00B0               	movwf	?___flmul
  3990  04F1  2FE5               	goto	l677
  3991  04F2                     l2404:	
  3992  04F2  0830               	movf	___flmul@b,w
  3993  04F3  00B8               	movwf	??___flmul
  3994  04F4  0838               	movf	??___flmul,w
  3995  04F5  00F0               	movwf	__Umul8_16@multiplicand
  3996  04F6  0836               	movf	___flmul@a+2,w
  3997  04F7  120A  158A  206D  120A  118A  	fcall	__Umul8_16
  3998  04FC  0871               	movf	?__Umul8_16+1,w
  3999  04FD  1283               	bcf	3,5	;RP0=0, select bank0
  4000  04FE  1303               	bcf	3,6	;RP1=0, select bank0
  4001  04FF  00C9               	movwf	___flmul@temp+1
  4002  0500  0870               	movf	?__Umul8_16,w
  4003  0501  00C8               	movwf	___flmul@temp
  4004  0502                     l2406:	
  4005  0502  0848               	movf	___flmul@temp,w
  4006  0503  00B8               	movwf	??___flmul
  4007  0504  01B9               	clrf	??___flmul+1
  4008  0505  01BA               	clrf	??___flmul+2
  4009  0506  01BB               	clrf	??___flmul+3
  4010  0507  083B               	movf	??___flmul+3,w
  4011  0508  00C1               	movwf	___flmul@grs+3
  4012  0509  083A               	movf	??___flmul+2,w
  4013  050A  00C0               	movwf	___flmul@grs+2
  4014  050B  0839               	movf	??___flmul+1,w
  4015  050C  00BF               	movwf	___flmul@grs+1
  4016  050D  0838               	movf	??___flmul,w
  4017  050E  00BE               	movwf	___flmul@grs
  4018  050F                     l2408:	
  4019  050F  0849               	movf	___flmul@temp+1,w
  4020  0510  00B8               	movwf	??___flmul
  4021  0511  01B9               	clrf	??___flmul+1
  4022  0512  01BA               	clrf	??___flmul+2
  4023  0513  01BB               	clrf	??___flmul+3
  4024  0514  083B               	movf	??___flmul+3,w
  4025  0515  00C7               	movwf	___flmul@prod+3
  4026  0516  083A               	movf	??___flmul+2,w
  4027  0517  00C6               	movwf	___flmul@prod+2
  4028  0518  0839               	movf	??___flmul+1,w
  4029  0519  00C5               	movwf	___flmul@prod+1
  4030  051A  0838               	movf	??___flmul,w
  4031  051B  00C4               	movwf	___flmul@prod
  4032  051C  0831               	movf	___flmul@b+1,w
  4033  051D  00B8               	movwf	??___flmul
  4034  051E  0838               	movf	??___flmul,w
  4035  051F  00F0               	movwf	__Umul8_16@multiplicand
  4036  0520  0835               	movf	___flmul@a+1,w
  4037  0521  120A  158A  206D  120A  118A  	fcall	__Umul8_16
  4038  0526  0871               	movf	?__Umul8_16+1,w
  4039  0527  1283               	bcf	3,5	;RP0=0, select bank0
  4040  0528  1303               	bcf	3,6	;RP1=0, select bank0
  4041  0529  00C9               	movwf	___flmul@temp+1
  4042  052A  0870               	movf	?__Umul8_16,w
  4043  052B  00C8               	movwf	___flmul@temp
  4044  052C                     l2410:	
  4045  052C  0848               	movf	___flmul@temp,w
  4046  052D  00B8               	movwf	??___flmul
  4047  052E  01B9               	clrf	??___flmul+1
  4048  052F  01BA               	clrf	??___flmul+2
  4049  0530  01BB               	clrf	??___flmul+3
  4050  0531  0838               	movf	??___flmul,w
  4051  0532  07BE               	addwf	___flmul@grs,f
  4052  0533  0839               	movf	??___flmul+1,w
  4053  0534  1103               	clrz
  4054  0535  1803               	skipnc
  4055  0536  3E01               	addlw	1
  4056  0537  1903               	skipnz
  4057  0538  2D3A               	goto	u3111
  4058  0539  07BF               	addwf	___flmul@grs+1,f
  4059  053A                     u3111:	
  4060  053A  083A               	movf	??___flmul+2,w
  4061  053B  1103               	clrz
  4062  053C  1803               	skipnc
  4063  053D  3E01               	addlw	1
  4064  053E  1903               	skipnz
  4065  053F  2D41               	goto	u3112
  4066  0540  07C0               	addwf	___flmul@grs+2,f
  4067  0541                     u3112:	
  4068  0541  083B               	movf	??___flmul+3,w
  4069  0542  1103               	clrz
  4070  0543  1803               	skipnc
  4071  0544  3E01               	addlw	1
  4072  0545  1903               	skipnz
  4073  0546  2D48               	goto	u3113
  4074  0547  07C1               	addwf	___flmul@grs+3,f
  4075  0548                     u3113:	
  4076  0548                     l2412:	
  4077  0548  0849               	movf	___flmul@temp+1,w
  4078  0549  00B8               	movwf	??___flmul
  4079  054A  01B9               	clrf	??___flmul+1
  4080  054B  01BA               	clrf	??___flmul+2
  4081  054C  01BB               	clrf	??___flmul+3
  4082  054D  0838               	movf	??___flmul,w
  4083  054E  07C4               	addwf	___flmul@prod,f
  4084  054F  0839               	movf	??___flmul+1,w
  4085  0550  1103               	clrz
  4086  0551  1803               	skipnc
  4087  0552  3E01               	addlw	1
  4088  0553  1903               	skipnz
  4089  0554  2D56               	goto	u3121
  4090  0555  07C5               	addwf	___flmul@prod+1,f
  4091  0556                     u3121:	
  4092  0556  083A               	movf	??___flmul+2,w
  4093  0557  1103               	clrz
  4094  0558  1803               	skipnc
  4095  0559  3E01               	addlw	1
  4096  055A  1903               	skipnz
  4097  055B  2D5D               	goto	u3122
  4098  055C  07C6               	addwf	___flmul@prod+2,f
  4099  055D                     u3122:	
  4100  055D  083B               	movf	??___flmul+3,w
  4101  055E  1103               	clrz
  4102  055F  1803               	skipnc
  4103  0560  3E01               	addlw	1
  4104  0561  1903               	skipnz
  4105  0562  2D64               	goto	u3123
  4106  0563  07C7               	addwf	___flmul@prod+3,f
  4107  0564                     u3123:	
  4108  0564  0832               	movf	___flmul@b+2,w
  4109  0565  00B8               	movwf	??___flmul
  4110  0566  0838               	movf	??___flmul,w
  4111  0567  00F0               	movwf	__Umul8_16@multiplicand
  4112  0568  0834               	movf	___flmul@a,w
  4113  0569  120A  158A  206D  120A  118A  	fcall	__Umul8_16
  4114  056E  0871               	movf	?__Umul8_16+1,w
  4115  056F  1283               	bcf	3,5	;RP0=0, select bank0
  4116  0570  1303               	bcf	3,6	;RP1=0, select bank0
  4117  0571  00C9               	movwf	___flmul@temp+1
  4118  0572  0870               	movf	?__Umul8_16,w
  4119  0573  00C8               	movwf	___flmul@temp
  4120  0574                     l2414:	
  4121  0574  0848               	movf	___flmul@temp,w
  4122  0575  00B8               	movwf	??___flmul
  4123  0576  01B9               	clrf	??___flmul+1
  4124  0577  01BA               	clrf	??___flmul+2
  4125  0578  01BB               	clrf	??___flmul+3
  4126  0579  0838               	movf	??___flmul,w
  4127  057A  07BE               	addwf	___flmul@grs,f
  4128  057B  0839               	movf	??___flmul+1,w
  4129  057C  1103               	clrz
  4130  057D  1803               	skipnc
  4131  057E  3E01               	addlw	1
  4132  057F  1903               	skipnz
  4133  0580  2D82               	goto	u3131
  4134  0581  07BF               	addwf	___flmul@grs+1,f
  4135  0582                     u3131:	
  4136  0582  083A               	movf	??___flmul+2,w
  4137  0583  1103               	clrz
  4138  0584  1803               	skipnc
  4139  0585  3E01               	addlw	1
  4140  0586  1903               	skipnz
  4141  0587  2D89               	goto	u3132
  4142  0588  07C0               	addwf	___flmul@grs+2,f
  4143  0589                     u3132:	
  4144  0589  083B               	movf	??___flmul+3,w
  4145  058A  1103               	clrz
  4146  058B  1803               	skipnc
  4147  058C  3E01               	addlw	1
  4148  058D  1903               	skipnz
  4149  058E  2D90               	goto	u3133
  4150  058F  07C1               	addwf	___flmul@grs+3,f
  4151  0590                     u3133:	
  4152  0590                     l2416:	
  4153  0590  0849               	movf	___flmul@temp+1,w
  4154  0591  00B8               	movwf	??___flmul
  4155  0592  01B9               	clrf	??___flmul+1
  4156  0593  01BA               	clrf	??___flmul+2
  4157  0594  01BB               	clrf	??___flmul+3
  4158  0595  0838               	movf	??___flmul,w
  4159  0596  07C4               	addwf	___flmul@prod,f
  4160  0597  0839               	movf	??___flmul+1,w
  4161  0598  1103               	clrz
  4162  0599  1803               	skipnc
  4163  059A  3E01               	addlw	1
  4164  059B  1903               	skipnz
  4165  059C  2D9E               	goto	u3141
  4166  059D  07C5               	addwf	___flmul@prod+1,f
  4167  059E                     u3141:	
  4168  059E  083A               	movf	??___flmul+2,w
  4169  059F  1103               	clrz
  4170  05A0  1803               	skipnc
  4171  05A1  3E01               	addlw	1
  4172  05A2  1903               	skipnz
  4173  05A3  2DA5               	goto	u3142
  4174  05A4  07C6               	addwf	___flmul@prod+2,f
  4175  05A5                     u3142:	
  4176  05A5  083B               	movf	??___flmul+3,w
  4177  05A6  1103               	clrz
  4178  05A7  1803               	skipnc
  4179  05A8  3E01               	addlw	1
  4180  05A9  1903               	skipnz
  4181  05AA  2DAC               	goto	u3143
  4182  05AB  07C7               	addwf	___flmul@prod+3,f
  4183  05AC                     u3143:	
  4184  05AC                     l2418:	
  4185  05AC  3008               	movlw	8
  4186  05AD  00B8               	movwf	??___flmul
  4187  05AE                     u3155:	
  4188  05AE  1003               	clrc
  4189  05AF  0DBE               	rlf	___flmul@grs,f
  4190  05B0  0DBF               	rlf	___flmul@grs+1,f
  4191  05B1  0DC0               	rlf	___flmul@grs+2,f
  4192  05B2  0DC1               	rlf	___flmul@grs+3,f
  4193  05B3  0BB8               	decfsz	??___flmul,f
  4194  05B4  2DAE               	goto	u3155
  4195  05B5                     l2420:	
  4196  05B5  0831               	movf	___flmul@b+1,w
  4197  05B6  00B8               	movwf	??___flmul
  4198  05B7  0838               	movf	??___flmul,w
  4199  05B8  00F0               	movwf	__Umul8_16@multiplicand
  4200  05B9  0834               	movf	___flmul@a,w
  4201  05BA  120A  158A  206D  120A  118A  	fcall	__Umul8_16
  4202  05BF  0871               	movf	?__Umul8_16+1,w
  4203  05C0  1283               	bcf	3,5	;RP0=0, select bank0
  4204  05C1  1303               	bcf	3,6	;RP1=0, select bank0
  4205  05C2  00C9               	movwf	___flmul@temp+1
  4206  05C3  0870               	movf	?__Umul8_16,w
  4207  05C4  00C8               	movwf	___flmul@temp
  4208  05C5                     l2422:	
  4209  05C5  0848               	movf	___flmul@temp,w
  4210  05C6  00B8               	movwf	??___flmul
  4211  05C7  0849               	movf	___flmul@temp+1,w
  4212  05C8  00B9               	movwf	??___flmul+1
  4213  05C9  01BA               	clrf	??___flmul+2
  4214  05CA  01BB               	clrf	??___flmul+3
  4215  05CB  0838               	movf	??___flmul,w
  4216  05CC  07BE               	addwf	___flmul@grs,f
  4217  05CD  0839               	movf	??___flmul+1,w
  4218  05CE  1103               	clrz
  4219  05CF  1803               	skipnc
  4220  05D0  3E01               	addlw	1
  4221  05D1  1903               	skipnz
  4222  05D2  2DD4               	goto	u3161
  4223  05D3  07BF               	addwf	___flmul@grs+1,f
  4224  05D4                     u3161:	
  4225  05D4  083A               	movf	??___flmul+2,w
  4226  05D5  1103               	clrz
  4227  05D6  1803               	skipnc
  4228  05D7  3E01               	addlw	1
  4229  05D8  1903               	skipnz
  4230  05D9  2DDB               	goto	u3162
  4231  05DA  07C0               	addwf	___flmul@grs+2,f
  4232  05DB                     u3162:	
  4233  05DB  083B               	movf	??___flmul+3,w
  4234  05DC  1103               	clrz
  4235  05DD  1803               	skipnc
  4236  05DE  3E01               	addlw	1
  4237  05DF  1903               	skipnz
  4238  05E0  2DE2               	goto	u3163
  4239  05E1  07C1               	addwf	___flmul@grs+3,f
  4240  05E2                     u3163:	
  4241  05E2                     l2424:	
  4242  05E2  0830               	movf	___flmul@b,w
  4243  05E3  00B8               	movwf	??___flmul
  4244  05E4  0838               	movf	??___flmul,w
  4245  05E5  00F0               	movwf	__Umul8_16@multiplicand
  4246  05E6  0835               	movf	___flmul@a+1,w
  4247  05E7  120A  158A  206D  120A  118A  	fcall	__Umul8_16
  4248  05EC  0871               	movf	?__Umul8_16+1,w
  4249  05ED  1283               	bcf	3,5	;RP0=0, select bank0
  4250  05EE  1303               	bcf	3,6	;RP1=0, select bank0
  4251  05EF  00C9               	movwf	___flmul@temp+1
  4252  05F0  0870               	movf	?__Umul8_16,w
  4253  05F1  00C8               	movwf	___flmul@temp
  4254  05F2                     l2426:	
  4255  05F2  0848               	movf	___flmul@temp,w
  4256  05F3  00B8               	movwf	??___flmul
  4257  05F4  0849               	movf	___flmul@temp+1,w
  4258  05F5  00B9               	movwf	??___flmul+1
  4259  05F6  01BA               	clrf	??___flmul+2
  4260  05F7  01BB               	clrf	??___flmul+3
  4261  05F8  0838               	movf	??___flmul,w
  4262  05F9  07BE               	addwf	___flmul@grs,f
  4263  05FA  0839               	movf	??___flmul+1,w
  4264  05FB  1103               	clrz
  4265  05FC  1803               	skipnc
  4266  05FD  3E01               	addlw	1
  4267  05FE  1903               	skipnz
  4268  05FF  2E01               	goto	u3171
  4269  0600  07BF               	addwf	___flmul@grs+1,f
  4270  0601                     u3171:	
  4271  0601  083A               	movf	??___flmul+2,w
  4272  0602  1103               	clrz
  4273  0603  1803               	skipnc
  4274  0604  3E01               	addlw	1
  4275  0605  1903               	skipnz
  4276  0606  2E08               	goto	u3172
  4277  0607  07C0               	addwf	___flmul@grs+2,f
  4278  0608                     u3172:	
  4279  0608  083B               	movf	??___flmul+3,w
  4280  0609  1103               	clrz
  4281  060A  1803               	skipnc
  4282  060B  3E01               	addlw	1
  4283  060C  1903               	skipnz
  4284  060D  2E0F               	goto	u3173
  4285  060E  07C1               	addwf	___flmul@grs+3,f
  4286  060F                     u3173:	
  4287  060F                     l2428:	
  4288  060F  3008               	movlw	8
  4289  0610  00B8               	movwf	??___flmul
  4290  0611                     u3185:	
  4291  0611  1003               	clrc
  4292  0612  0DBE               	rlf	___flmul@grs,f
  4293  0613  0DBF               	rlf	___flmul@grs+1,f
  4294  0614  0DC0               	rlf	___flmul@grs+2,f
  4295  0615  0DC1               	rlf	___flmul@grs+3,f
  4296  0616  0BB8               	decfsz	??___flmul,f
  4297  0617  2E11               	goto	u3185
  4298  0618  0830               	movf	___flmul@b,w
  4299  0619  00B8               	movwf	??___flmul
  4300  061A  0838               	movf	??___flmul,w
  4301  061B  00F0               	movwf	__Umul8_16@multiplicand
  4302  061C  0834               	movf	___flmul@a,w
  4303  061D  120A  158A  206D  120A  118A  	fcall	__Umul8_16
  4304  0622  0871               	movf	?__Umul8_16+1,w
  4305  0623  1283               	bcf	3,5	;RP0=0, select bank0
  4306  0624  1303               	bcf	3,6	;RP1=0, select bank0
  4307  0625  00C9               	movwf	___flmul@temp+1
  4308  0626  0870               	movf	?__Umul8_16,w
  4309  0627  00C8               	movwf	___flmul@temp
  4310  0628                     l2430:	
  4311  0628  0848               	movf	___flmul@temp,w
  4312  0629  00B8               	movwf	??___flmul
  4313  062A  0849               	movf	___flmul@temp+1,w
  4314  062B  00B9               	movwf	??___flmul+1
  4315  062C  01BA               	clrf	??___flmul+2
  4316  062D  01BB               	clrf	??___flmul+3
  4317  062E  0838               	movf	??___flmul,w
  4318  062F  07BE               	addwf	___flmul@grs,f
  4319  0630  0839               	movf	??___flmul+1,w
  4320  0631  1103               	clrz
  4321  0632  1803               	skipnc
  4322  0633  3E01               	addlw	1
  4323  0634  1903               	skipnz
  4324  0635  2E37               	goto	u3191
  4325  0636  07BF               	addwf	___flmul@grs+1,f
  4326  0637                     u3191:	
  4327  0637  083A               	movf	??___flmul+2,w
  4328  0638  1103               	clrz
  4329  0639  1803               	skipnc
  4330  063A  3E01               	addlw	1
  4331  063B  1903               	skipnz
  4332  063C  2E3E               	goto	u3192
  4333  063D  07C0               	addwf	___flmul@grs+2,f
  4334  063E                     u3192:	
  4335  063E  083B               	movf	??___flmul+3,w
  4336  063F  1103               	clrz
  4337  0640  1803               	skipnc
  4338  0641  3E01               	addlw	1
  4339  0642  1903               	skipnz
  4340  0643  2E45               	goto	u3193
  4341  0644  07C1               	addwf	___flmul@grs+3,f
  4342  0645                     u3193:	
  4343  0645                     l2432:	
  4344  0645  0831               	movf	___flmul@b+1,w
  4345  0646  00B8               	movwf	??___flmul
  4346  0647  0838               	movf	??___flmul,w
  4347  0648  00F0               	movwf	__Umul8_16@multiplicand
  4348  0649  0836               	movf	___flmul@a+2,w
  4349  064A  120A  158A  206D  120A  118A  	fcall	__Umul8_16
  4350  064F  0871               	movf	?__Umul8_16+1,w
  4351  0650  1283               	bcf	3,5	;RP0=0, select bank0
  4352  0651  1303               	bcf	3,6	;RP1=0, select bank0
  4353  0652  00C9               	movwf	___flmul@temp+1
  4354  0653  0870               	movf	?__Umul8_16,w
  4355  0654  00C8               	movwf	___flmul@temp
  4356  0655  0848               	movf	___flmul@temp,w
  4357  0656  00B8               	movwf	??___flmul
  4358  0657  0849               	movf	___flmul@temp+1,w
  4359  0658  00B9               	movwf	??___flmul+1
  4360  0659  01BA               	clrf	??___flmul+2
  4361  065A  01BB               	clrf	??___flmul+3
  4362  065B  0838               	movf	??___flmul,w
  4363  065C  07C4               	addwf	___flmul@prod,f
  4364  065D  0839               	movf	??___flmul+1,w
  4365  065E  1103               	clrz
  4366  065F  1803               	skipnc
  4367  0660  3E01               	addlw	1
  4368  0661  1903               	skipnz
  4369  0662  2E64               	goto	u3201
  4370  0663  07C5               	addwf	___flmul@prod+1,f
  4371  0664                     u3201:	
  4372  0664  083A               	movf	??___flmul+2,w
  4373  0665  1103               	clrz
  4374  0666  1803               	skipnc
  4375  0667  3E01               	addlw	1
  4376  0668  1903               	skipnz
  4377  0669  2E6B               	goto	u3202
  4378  066A  07C6               	addwf	___flmul@prod+2,f
  4379  066B                     u3202:	
  4380  066B  083B               	movf	??___flmul+3,w
  4381  066C  1103               	clrz
  4382  066D  1803               	skipnc
  4383  066E  3E01               	addlw	1
  4384  066F  1903               	skipnz
  4385  0670  2E72               	goto	u3203
  4386  0671  07C7               	addwf	___flmul@prod+3,f
  4387  0672                     u3203:	
  4388  0672                     l2434:	
  4389  0672  0832               	movf	___flmul@b+2,w
  4390  0673  00B8               	movwf	??___flmul
  4391  0674  0838               	movf	??___flmul,w
  4392  0675  00F0               	movwf	__Umul8_16@multiplicand
  4393  0676  0835               	movf	___flmul@a+1,w
  4394  0677  120A  158A  206D  120A  118A  	fcall	__Umul8_16
  4395  067C  0871               	movf	?__Umul8_16+1,w
  4396  067D  1283               	bcf	3,5	;RP0=0, select bank0
  4397  067E  1303               	bcf	3,6	;RP1=0, select bank0
  4398  067F  00C9               	movwf	___flmul@temp+1
  4399  0680  0870               	movf	?__Umul8_16,w
  4400  0681  00C8               	movwf	___flmul@temp
  4401  0682                     l2436:	
  4402  0682  0848               	movf	___flmul@temp,w
  4403  0683  00B8               	movwf	??___flmul
  4404  0684  0849               	movf	___flmul@temp+1,w
  4405  0685  00B9               	movwf	??___flmul+1
  4406  0686  01BA               	clrf	??___flmul+2
  4407  0687  01BB               	clrf	??___flmul+3
  4408  0688  0838               	movf	??___flmul,w
  4409  0689  07C4               	addwf	___flmul@prod,f
  4410  068A  0839               	movf	??___flmul+1,w
  4411  068B  1103               	clrz
  4412  068C  1803               	skipnc
  4413  068D  3E01               	addlw	1
  4414  068E  1903               	skipnz
  4415  068F  2E91               	goto	u3211
  4416  0690  07C5               	addwf	___flmul@prod+1,f
  4417  0691                     u3211:	
  4418  0691  083A               	movf	??___flmul+2,w
  4419  0692  1103               	clrz
  4420  0693  1803               	skipnc
  4421  0694  3E01               	addlw	1
  4422  0695  1903               	skipnz
  4423  0696  2E98               	goto	u3212
  4424  0697  07C6               	addwf	___flmul@prod+2,f
  4425  0698                     u3212:	
  4426  0698  083B               	movf	??___flmul+3,w
  4427  0699  1103               	clrz
  4428  069A  1803               	skipnc
  4429  069B  3E01               	addlw	1
  4430  069C  1903               	skipnz
  4431  069D  2E9F               	goto	u3213
  4432  069E  07C7               	addwf	___flmul@prod+3,f
  4433  069F                     u3213:	
  4434  069F  0832               	movf	___flmul@b+2,w
  4435  06A0  00B8               	movwf	??___flmul
  4436  06A1  0838               	movf	??___flmul,w
  4437  06A2  00F0               	movwf	__Umul8_16@multiplicand
  4438  06A3  0836               	movf	___flmul@a+2,w
  4439  06A4  120A  158A  206D  120A  118A  	fcall	__Umul8_16
  4440  06A9  0871               	movf	?__Umul8_16+1,w
  4441  06AA  1283               	bcf	3,5	;RP0=0, select bank0
  4442  06AB  1303               	bcf	3,6	;RP1=0, select bank0
  4443  06AC  00C9               	movwf	___flmul@temp+1
  4444  06AD  0870               	movf	?__Umul8_16,w
  4445  06AE  00C8               	movwf	___flmul@temp
  4446  06AF                     l2438:	
  4447  06AF  0848               	movf	___flmul@temp,w
  4448  06B0  00B8               	movwf	??___flmul
  4449  06B1  0849               	movf	___flmul@temp+1,w
  4450  06B2  00B9               	movwf	??___flmul+1
  4451  06B3  01BA               	clrf	??___flmul+2
  4452  06B4  01BB               	clrf	??___flmul+3
  4453  06B5  3008               	movlw	8
  4454  06B6                     u3225:	
  4455  06B6  1003               	clrc
  4456  06B7  0DB8               	rlf	??___flmul,f
  4457  06B8  0DB9               	rlf	??___flmul+1,f
  4458  06B9  0DBA               	rlf	??___flmul+2,f
  4459  06BA  0DBB               	rlf	??___flmul+3,f
  4460  06BB                     u3220:	
  4461  06BB  3EFF               	addlw	-1
  4462  06BC  1D03               	skipz
  4463  06BD  2EB6               	goto	u3225
  4464  06BE  0838               	movf	??___flmul,w
  4465  06BF  07C4               	addwf	___flmul@prod,f
  4466  06C0  0839               	movf	??___flmul+1,w
  4467  06C1  1103               	clrz
  4468  06C2  1803               	skipnc
  4469  06C3  3E01               	addlw	1
  4470  06C4  1903               	skipnz
  4471  06C5  2EC7               	goto	u3231
  4472  06C6  07C5               	addwf	___flmul@prod+1,f
  4473  06C7                     u3231:	
  4474  06C7  083A               	movf	??___flmul+2,w
  4475  06C8  1103               	clrz
  4476  06C9  1803               	skipnc
  4477  06CA  3E01               	addlw	1
  4478  06CB  1903               	skipnz
  4479  06CC  2ECE               	goto	u3232
  4480  06CD  07C6               	addwf	___flmul@prod+2,f
  4481  06CE                     u3232:	
  4482  06CE  083B               	movf	??___flmul+3,w
  4483  06CF  1103               	clrz
  4484  06D0  1803               	skipnc
  4485  06D1  3E01               	addlw	1
  4486  06D2  1903               	skipnz
  4487  06D3  2ED5               	goto	u3233
  4488  06D4  07C7               	addwf	___flmul@prod+3,f
  4489  06D5                     u3233:	
  4490  06D5                     l2440:	
  4491  06D5  083E               	movf	___flmul@grs,w
  4492  06D6  00B8               	movwf	??___flmul
  4493  06D7  083F               	movf	___flmul@grs+1,w
  4494  06D8  00B9               	movwf	??___flmul+1
  4495  06D9  0840               	movf	___flmul@grs+2,w
  4496  06DA  00BA               	movwf	??___flmul+2
  4497  06DB  0841               	movf	___flmul@grs+3,w
  4498  06DC  00BB               	movwf	??___flmul+3
  4499  06DD  3018               	movlw	24
  4500  06DE                     u3245:	
  4501  06DE  1003               	clrc
  4502  06DF  0CBB               	rrf	??___flmul+3,f
  4503  06E0  0CBA               	rrf	??___flmul+2,f
  4504  06E1  0CB9               	rrf	??___flmul+1,f
  4505  06E2  0CB8               	rrf	??___flmul,f
  4506  06E3                     u3240:	
  4507  06E3  3EFF               	addlw	-1
  4508  06E4  1D03               	skipz
  4509  06E5  2EDE               	goto	u3245
  4510  06E6  0838               	movf	??___flmul,w
  4511  06E7  07C4               	addwf	___flmul@prod,f
  4512  06E8  0839               	movf	??___flmul+1,w
  4513  06E9  1103               	clrz
  4514  06EA  1803               	skipnc
  4515  06EB  3E01               	addlw	1
  4516  06EC  1903               	skipnz
  4517  06ED  2EEF               	goto	u3251
  4518  06EE  07C5               	addwf	___flmul@prod+1,f
  4519  06EF                     u3251:	
  4520  06EF  083A               	movf	??___flmul+2,w
  4521  06F0  1103               	clrz
  4522  06F1  1803               	skipnc
  4523  06F2  3E01               	addlw	1
  4524  06F3  1903               	skipnz
  4525  06F4  2EF6               	goto	u3252
  4526  06F5  07C6               	addwf	___flmul@prod+2,f
  4527  06F6                     u3252:	
  4528  06F6  083B               	movf	??___flmul+3,w
  4529  06F7  1103               	clrz
  4530  06F8  1803               	skipnc
  4531  06F9  3E01               	addlw	1
  4532  06FA  1903               	skipnz
  4533  06FB  2EFD               	goto	u3253
  4534  06FC  07C7               	addwf	___flmul@prod+3,f
  4535  06FD                     u3253:	
  4536  06FD                     l2442:	
  4537  06FD  3008               	movlw	8
  4538  06FE  00B8               	movwf	??___flmul
  4539  06FF                     u3265:	
  4540  06FF  1003               	clrc
  4541  0700  0DBE               	rlf	___flmul@grs,f
  4542  0701  0DBF               	rlf	___flmul@grs+1,f
  4543  0702  0DC0               	rlf	___flmul@grs+2,f
  4544  0703  0DC1               	rlf	___flmul@grs+3,f
  4545  0704  0BB8               	decfsz	??___flmul,f
  4546  0705  2EFF               	goto	u3265
  4547  0706                     l2444:	
  4548  0706  0843               	movf	___flmul@bexp,w
  4549  0707  0742               	addwf	___flmul@aexp,w
  4550  0708  00B8               	movwf	??___flmul
  4551  0709  01B9               	clrf	??___flmul+1
  4552  070A  0DB9               	rlf	??___flmul+1,f
  4553  070B  0838               	movf	??___flmul,w
  4554  070C  3E82               	addlw	130
  4555  070D  00C8               	movwf	___flmul@temp
  4556  070E  0839               	movf	??___flmul+1,w
  4557  070F  1803               	skipnc
  4558  0710  3E01               	addlw	1
  4559  0711  3EFF               	addlw	255
  4560  0712  00C9               	movwf	___flmul@temp+1
  4561  0713  2F31               	goto	l2456
  4562  0714                     l2446:	
  4563  0714  3001               	movlw	1
  4564  0715  00B8               	movwf	??___flmul
  4565  0716                     u3275:	
  4566  0716  1003               	clrc
  4567  0717  0DC4               	rlf	___flmul@prod,f
  4568  0718  0DC5               	rlf	___flmul@prod+1,f
  4569  0719  0DC6               	rlf	___flmul@prod+2,f
  4570  071A  0DC7               	rlf	___flmul@prod+3,f
  4571  071B  0BB8               	decfsz	??___flmul,f
  4572  071C  2F16               	goto	u3275
  4573  071D                     l2448:	
  4574  071D  1FC1               	btfss	___flmul@grs+3,7
  4575  071E  2F20               	goto	u3281
  4576  071F  2F21               	goto	u3280
  4577  0720                     u3281:	
  4578  0720  2F22               	goto	l2452
  4579  0721                     u3280:	
  4580  0721                     l2450:	
  4581  0721  1444               	bsf	___flmul@prod,0
  4582  0722                     l2452:	
  4583  0722  3001               	movlw	1
  4584  0723  00B8               	movwf	??___flmul
  4585  0724                     u3295:	
  4586  0724  1003               	clrc
  4587  0725  0DBE               	rlf	___flmul@grs,f
  4588  0726  0DBF               	rlf	___flmul@grs+1,f
  4589  0727  0DC0               	rlf	___flmul@grs+2,f
  4590  0728  0DC1               	rlf	___flmul@grs+3,f
  4591  0729  0BB8               	decfsz	??___flmul,f
  4592  072A  2F24               	goto	u3295
  4593  072B                     l2454:	
  4594  072B  30FF               	movlw	255
  4595  072C  07C8               	addwf	___flmul@temp,f
  4596  072D  1803               	skipnc
  4597  072E  0AC9               	incf	___flmul@temp+1,f
  4598  072F  30FF               	movlw	255
  4599  0730  07C9               	addwf	___flmul@temp+1,f
  4600  0731                     l2456:	
  4601  0731  1FC6               	btfss	___flmul@prod+2,7
  4602  0732  2F34               	goto	u3301
  4603  0733  2F35               	goto	u3300
  4604  0734                     u3301:	
  4605  0734  2F14               	goto	l2446
  4606  0735                     u3300:	
  4607  0735                     l2458:	
  4608  0735  01C2               	clrf	___flmul@aexp
  4609  0736                     l2460:	
  4610  0736  1FC1               	btfss	___flmul@grs+3,7
  4611  0737  2F39               	goto	u3311
  4612  0738  2F3A               	goto	u3310
  4613  0739                     u3311:	
  4614  0739  2F56               	goto	l2468
  4615  073A                     u3310:	
  4616  073A                     l2462:	
  4617  073A  30FF               	movlw	255
  4618  073B  053E               	andwf	___flmul@grs,w
  4619  073C  00B8               	movwf	??___flmul
  4620  073D  30FF               	movlw	255
  4621  073E  053F               	andwf	___flmul@grs+1,w
  4622  073F  00B9               	movwf	??___flmul+1
  4623  0740  30FF               	movlw	255
  4624  0741  0540               	andwf	___flmul@grs+2,w
  4625  0742  00BA               	movwf	??___flmul+2
  4626  0743  307F               	movlw	127
  4627  0744  0541               	andwf	___flmul@grs+3,w
  4628  0745  00BB               	movwf	??___flmul+3
  4629  0746  083B               	movf	??___flmul+3,w
  4630  0747  043A               	iorwf	??___flmul+2,w
  4631  0748  0439               	iorwf	??___flmul+1,w
  4632  0749  0438               	iorwf	??___flmul,w
  4633  074A  1903               	skipnz
  4634  074B  2F4D               	goto	u3321
  4635  074C  2F4E               	goto	u3320
  4636  074D                     u3321:	
  4637  074D  2F51               	goto	l683
  4638  074E                     u3320:	
  4639  074E                     l2464:	
  4640  074E  01C2               	clrf	___flmul@aexp
  4641  074F  0AC2               	incf	___flmul@aexp,f
  4642  0750  2F56               	goto	l2468
  4643  0751                     l683:	
  4644  0751  1C44               	btfss	___flmul@prod,0
  4645  0752  2F54               	goto	u3331
  4646  0753  2F55               	goto	u3330
  4647  0754                     u3331:	
  4648  0754  2F56               	goto	l2468
  4649  0755                     u3330:	
  4650  0755  2F4E               	goto	l2464
  4651  0756                     l2468:	
  4652  0756  0842               	movf	___flmul@aexp,w
  4653  0757  1903               	btfsc	3,2
  4654  0758  2F5A               	goto	u3341
  4655  0759  2F5B               	goto	u3340
  4656  075A                     u3341:	
  4657  075A  2F8C               	goto	l2478
  4658  075B                     u3340:	
  4659  075B                     l2470:	
  4660  075B  3001               	movlw	1
  4661  075C  07C4               	addwf	___flmul@prod,f
  4662  075D  3000               	movlw	0
  4663  075E  1803               	skipnc
  4664  075F  3001               	movlw	1
  4665  0760  07C5               	addwf	___flmul@prod+1,f
  4666  0761  3000               	movlw	0
  4667  0762  1803               	skipnc
  4668  0763  3001               	movlw	1
  4669  0764  07C6               	addwf	___flmul@prod+2,f
  4670  0765  3000               	movlw	0
  4671  0766  1803               	skipnc
  4672  0767  3001               	movlw	1
  4673  0768  07C7               	addwf	___flmul@prod+3,f
  4674  0769                     l2472:	
  4675  0769  1C47               	btfss	___flmul@prod+3,0
  4676  076A  2F6C               	goto	u3351
  4677  076B  2F6D               	goto	u3350
  4678  076C                     u3351:	
  4679  076C  2F8C               	goto	l2478
  4680  076D                     u3350:	
  4681  076D                     l2474:	
  4682  076D  0844               	movf	___flmul@prod,w
  4683  076E  00B8               	movwf	??___flmul
  4684  076F  0845               	movf	___flmul@prod+1,w
  4685  0770  00B9               	movwf	??___flmul+1
  4686  0771  0846               	movf	___flmul@prod+2,w
  4687  0772  00BA               	movwf	??___flmul+2
  4688  0773  0847               	movf	___flmul@prod+3,w
  4689  0774  00BB               	movwf	??___flmul+3
  4690  0775  3001               	movlw	1
  4691  0776  00BC               	movwf	??___flmul+4
  4692  0777                     u3365:	
  4693  0777  0D3B               	rlf	??___flmul+3,w
  4694  0778  0CBB               	rrf	??___flmul+3,f
  4695  0779  0CBA               	rrf	??___flmul+2,f
  4696  077A  0CB9               	rrf	??___flmul+1,f
  4697  077B  0CB8               	rrf	??___flmul,f
  4698  077C                     u3360:	
  4699  077C  0BBC               	decfsz	??___flmul+4,f
  4700  077D  2F77               	goto	u3365
  4701  077E  083B               	movf	??___flmul+3,w
  4702  077F  00C7               	movwf	___flmul@prod+3
  4703  0780  083A               	movf	??___flmul+2,w
  4704  0781  00C6               	movwf	___flmul@prod+2
  4705  0782  0839               	movf	??___flmul+1,w
  4706  0783  00C5               	movwf	___flmul@prod+1
  4707  0784  0838               	movf	??___flmul,w
  4708  0785  00C4               	movwf	___flmul@prod
  4709  0786                     l2476:	
  4710  0786  3001               	movlw	1
  4711  0787  07C8               	addwf	___flmul@temp,f
  4712  0788  1803               	skipnc
  4713  0789  0AC9               	incf	___flmul@temp+1,f
  4714  078A  3000               	movlw	0
  4715  078B  07C9               	addwf	___flmul@temp+1,f
  4716  078C                     l2478:	
  4717  078C  0849               	movf	___flmul@temp+1,w
  4718  078D  3A80               	xorlw	128
  4719  078E  00FF               	movwf	btemp+1
  4720  078F  3080               	movlw	128
  4721  0790  027F               	subwf	btemp+1,w
  4722  0791  1D03               	skipz
  4723  0792  2F95               	goto	u3375
  4724  0793  30FF               	movlw	255
  4725  0794  0248               	subwf	___flmul@temp,w
  4726  0795                     u3375:	
  4727  0795  1C03               	skipc
  4728  0796  2F98               	goto	u3371
  4729  0797  2F99               	goto	u3370
  4730  0798                     u3371:	
  4731  0798  2FA4               	goto	l2482
  4732  0799                     u3370:	
  4733  0799                     l2480:	
  4734  0799  307F               	movlw	127
  4735  079A  1283               	bcf	3,5	;RP0=0, select bank0
  4736  079B  1303               	bcf	3,6	;RP1=0, select bank0
  4737  079C  00C7               	movwf	___flmul@prod+3
  4738  079D  3080               	movlw	128
  4739  079E  00C6               	movwf	___flmul@prod+2
  4740  079F  3000               	movlw	0
  4741  07A0  00C5               	movwf	___flmul@prod+1
  4742  07A1  3000               	movlw	0
  4743  07A2  00C4               	movwf	___flmul@prod
  4744  07A3  2FD9               	goto	l689
  4745  07A4                     l2482:	
  4746  07A4  1283               	bcf	3,5	;RP0=0, select bank0
  4747  07A5  1303               	bcf	3,6	;RP1=0, select bank0
  4748  07A6  0849               	movf	___flmul@temp+1,w
  4749  07A7  3A80               	xorlw	128
  4750  07A8  00FF               	movwf	btemp+1
  4751  07A9  3080               	movlw	128
  4752  07AA  027F               	subwf	btemp+1,w
  4753  07AB  1D03               	skipz
  4754  07AC  2FAF               	goto	u3385
  4755  07AD  3001               	movlw	1
  4756  07AE  0248               	subwf	___flmul@temp,w
  4757  07AF                     u3385:	
  4758  07AF  1803               	skipnc
  4759  07B0  2FB2               	goto	u3381
  4760  07B1  2FB3               	goto	u3380
  4761  07B2                     u3381:	
  4762  07B2  2FBF               	goto	l2488
  4763  07B3                     u3380:	
  4764  07B3                     l2484:	
  4765  07B3  3000               	movlw	0
  4766  07B4  1283               	bcf	3,5	;RP0=0, select bank0
  4767  07B5  1303               	bcf	3,6	;RP1=0, select bank0
  4768  07B6  00C7               	movwf	___flmul@prod+3
  4769  07B7  3000               	movlw	0
  4770  07B8  00C6               	movwf	___flmul@prod+2
  4771  07B9  3000               	movlw	0
  4772  07BA  00C5               	movwf	___flmul@prod+1
  4773  07BB  3000               	movlw	0
  4774  07BC  00C4               	movwf	___flmul@prod
  4775  07BD                     l2486:	
  4776  07BD  01BD               	clrf	___flmul@sign
  4777  07BE  2FD9               	goto	l689
  4778  07BF                     l2488:	
  4779  07BF  1283               	bcf	3,5	;RP0=0, select bank0
  4780  07C0  1303               	bcf	3,6	;RP1=0, select bank0
  4781  07C1  0848               	movf	___flmul@temp,w
  4782  07C2  00B8               	movwf	??___flmul
  4783  07C3  0838               	movf	??___flmul,w
  4784  07C4  00C3               	movwf	___flmul@bexp
  4785  07C5  30FF               	movlw	255
  4786  07C6  05C4               	andwf	___flmul@prod,f
  4787  07C7  30FF               	movlw	255
  4788  07C8  05C5               	andwf	___flmul@prod+1,f
  4789  07C9  307F               	movlw	127
  4790  07CA  05C6               	andwf	___flmul@prod+2,f
  4791  07CB  3000               	movlw	0
  4792  07CC  05C7               	andwf	___flmul@prod+3,f
  4793  07CD                     l2490:	
  4794  07CD  1C43               	btfss	___flmul@bexp,0
  4795  07CE  2FD0               	goto	u3391
  4796  07CF  2FD1               	goto	u3390
  4797  07D0                     u3391:	
  4798  07D0  2FD2               	goto	l2494
  4799  07D1                     u3390:	
  4800  07D1                     l2492:	
  4801  07D1  17C6               	bsf	___flmul@prod+2,7
  4802  07D2                     l2494:	
  4803  07D2  0843               	movf	___flmul@bexp,w
  4804  07D3  00B8               	movwf	??___flmul
  4805  07D4  1003               	clrc
  4806  07D5  0C38               	rrf	??___flmul,w
  4807  07D6  00B9               	movwf	??___flmul+1
  4808  07D7  0839               	movf	??___flmul+1,w
  4809  07D8  00C7               	movwf	___flmul@prod+3
  4810  07D9                     l689:	
  4811  07D9  083D               	movf	___flmul@sign,w
  4812  07DA  00B8               	movwf	??___flmul
  4813  07DB  0838               	movf	??___flmul,w
  4814  07DC  04C7               	iorwf	___flmul@prod+3,f
  4815  07DD                     l2496:	
  4816  07DD  0847               	movf	___flmul@prod+3,w
  4817  07DE  00B3               	movwf	?___flmul+3
  4818  07DF  0846               	movf	___flmul@prod+2,w
  4819  07E0  00B2               	movwf	?___flmul+2
  4820  07E1  0845               	movf	___flmul@prod+1,w
  4821  07E2  00B1               	movwf	?___flmul+1
  4822  07E3  0844               	movf	___flmul@prod,w
  4823  07E4  00B0               	movwf	?___flmul
  4824  07E5                     l677:	
  4825  07E5  0008               	return
  4826  07E6                     __end_of___flmul:	
  4827                           
  4828                           	psect	text11
  4829  086D                     __ptext11:	
  4830 ;; *************** function __Umul8_16 *****************
  4831 ;; Defined at:
  4832 ;;		line 4 in file "C:\Program Files (x86)\Microchip\xc8\v2.10\pic\sources\c90\common\Umul8_16.c"
  4833 ;; Parameters:    Size  Location     Type
  4834 ;;  multiplier      1    wreg     unsigned char 
  4835 ;;  multiplicand    1    0[COMMON] unsigned char 
  4836 ;; Auto vars:     Size  Location     Type
  4837 ;;  multiplier      1    8[COMMON] unsigned char 
  4838 ;;  word_mpld       2    6[COMMON] unsigned int 
  4839 ;;  product         2    4[COMMON] unsigned int 
  4840 ;; Return value:  Size  Location     Type
  4841 ;;                  2    0[COMMON] unsigned int 
  4842 ;; Registers used:
  4843 ;;		wreg, status,2, status,0
  4844 ;; Tracked objects:
  4845 ;;		On entry : 0/0
  4846 ;;		On exit  : 0/0
  4847 ;;		Unchanged: 0/0
  4848 ;; Data sizes:     COMMON   BANK0   BANK1   BANK3   BANK2
  4849 ;;      Params:         2       0       0       0       0
  4850 ;;      Locals:         5       0       0       0       0
  4851 ;;      Temps:          2       0       0       0       0
  4852 ;;      Totals:         9       0       0       0       0
  4853 ;;Total ram usage:        9 bytes
  4854 ;; Hardware stack levels used:    1
  4855 ;; This function calls:
  4856 ;;		Nothing
  4857 ;; This function is called by:
  4858 ;;		___flmul
  4859 ;; This function uses a non-reentrant model
  4860 ;;
  4861                           
  4862                           
  4863                           ;psect for function __Umul8_16
  4864  086D                     __Umul8_16:	
  4865                           
  4866                           ;incstack = 0
  4867                           ; Regs used in __Umul8_16: [wreg+status,2+status,0]
  4868                           ;__Umul8_16@multiplier stored from wreg
  4869  086D  00F8               	movwf	__Umul8_16@multiplier
  4870  086E                     l2116:	
  4871  086E  01F4               	clrf	__Umul8_16@product
  4872  086F  01F5               	clrf	__Umul8_16@product+1
  4873  0870                     l2118:	
  4874  0870  0870               	movf	__Umul8_16@multiplicand,w
  4875  0871  00F2               	movwf	??__Umul8_16
  4876  0872  01F3               	clrf	??__Umul8_16+1
  4877  0873  0872               	movf	??__Umul8_16,w
  4878  0874  00F6               	movwf	__Umul8_16@word_mpld
  4879  0875  0873               	movf	??__Umul8_16+1,w
  4880  0876  00F7               	movwf	__Umul8_16@word_mpld+1
  4881  0877                     l2120:	
  4882  0877  1C78               	btfss	__Umul8_16@multiplier,0
  4883  0878  287A               	goto	u2581
  4884  0879  287B               	goto	u2580
  4885  087A                     u2581:	
  4886  087A  2881               	goto	l734
  4887  087B                     u2580:	
  4888  087B                     l2122:	
  4889  087B  0876               	movf	__Umul8_16@word_mpld,w
  4890  087C  07F4               	addwf	__Umul8_16@product,f
  4891  087D  1803               	skipnc
  4892  087E  0AF5               	incf	__Umul8_16@product+1,f
  4893  087F  0877               	movf	__Umul8_16@word_mpld+1,w
  4894  0880  07F5               	addwf	__Umul8_16@product+1,f
  4895  0881                     l734:	
  4896  0881  3001               	movlw	1
  4897  0882                     u2595:	
  4898  0882  1003               	clrc
  4899  0883  0DF6               	rlf	__Umul8_16@word_mpld,f
  4900  0884  0DF7               	rlf	__Umul8_16@word_mpld+1,f
  4901  0885  3EFF               	addlw	-1
  4902  0886  1D03               	skipz
  4903  0887  2882               	goto	u2595
  4904  0888  1003               	clrc
  4905  0889  0CF8               	rrf	__Umul8_16@multiplier,f
  4906  088A                     l2124:	
  4907  088A  0878               	movf	__Umul8_16@multiplier,w
  4908  088B  1D03               	btfss	3,2
  4909  088C  288E               	goto	u2601
  4910  088D  288F               	goto	u2600
  4911  088E                     u2601:	
  4912  088E  2877               	goto	l2120
  4913  088F                     u2600:	
  4914  088F                     l2126:	
  4915  088F  0875               	movf	__Umul8_16@product+1,w
  4916  0890  00F1               	movwf	?__Umul8_16+1
  4917  0891  0874               	movf	__Umul8_16@product,w
  4918  0892  00F0               	movwf	?__Umul8_16
  4919  0893                     l736:	
  4920  0893  0008               	return
  4921  0894                     __end_of__Umul8_16:	
  4922                           
  4923                           	psect	text12
  4924  0B8B                     __ptext12:	
  4925 ;; *************** function ___fldiv *****************
  4926 ;; Defined at:
  4927 ;;		line 8 in file "C:\Program Files (x86)\Microchip\xc8\v2.10\pic\sources\c90\common\sprcdiv.c"
  4928 ;; Parameters:    Size  Location     Type
  4929 ;;  a               4   42[BANK0 ] unsigned int 
  4930 ;;  b               4   46[BANK0 ] unsigned int 
  4931 ;; Auto vars:     Size  Location     Type
  4932 ;;  grs             4   62[BANK0 ] unsigned long 
  4933 ;;  rem             4   55[BANK0 ] unsigned long 
  4934 ;;  new_exp         2   60[BANK0 ] int 
  4935 ;;  aexp            1   67[BANK0 ] unsigned char 
  4936 ;;  bexp            1   66[BANK0 ] unsigned char 
  4937 ;;  sign            1   59[BANK0 ] unsigned char 
  4938 ;; Return value:  Size  Location     Type
  4939 ;;                  4   42[BANK0 ] unsigned char 
  4940 ;; Registers used:
  4941 ;;		wreg, status,2, status,0, btemp+1
  4942 ;; Tracked objects:
  4943 ;;		On entry : 0/0
  4944 ;;		On exit  : 0/0
  4945 ;;		Unchanged: 0/0
  4946 ;; Data sizes:     COMMON   BANK0   BANK1   BANK3   BANK2
  4947 ;;      Params:         0       8       0       0       0
  4948 ;;      Locals:         0      13       0       0       0
  4949 ;;      Temps:          0       5       0       0       0
  4950 ;;      Totals:         0      26       0       0       0
  4951 ;;Total ram usage:       26 bytes
  4952 ;; Hardware stack levels used:    1
  4953 ;; This function calls:
  4954 ;;		Nothing
  4955 ;; This function is called by:
  4956 ;;		_main
  4957 ;; This function uses a non-reentrant model
  4958 ;;
  4959                           
  4960                           
  4961                           ;psect for function ___fldiv
  4962  0B8B                     ___fldiv:	
  4963  0B8B                     l2218:	
  4964                           ;incstack = 0
  4965                           ; Regs used in ___fldiv: [wreg+status,2+status,0+btemp+1]
  4966                           
  4967  0B8B  1283               	bcf	3,5	;RP0=0, select bank0
  4968  0B8C  1303               	bcf	3,6	;RP1=0, select bank0
  4969  0B8D  0851               	movf	___fldiv@b+3,w
  4970  0B8E  3980               	andlw	128
  4971  0B8F  00D2               	movwf	??___fldiv
  4972  0B90  0852               	movf	??___fldiv,w
  4973  0B91  00DB               	movwf	___fldiv@sign
  4974  0B92                     l2220:	
  4975  0B92  0851               	movf	___fldiv@b+3,w
  4976  0B93  00D2               	movwf	??___fldiv
  4977  0B94  0752               	addwf	??___fldiv,w
  4978  0B95  00D3               	movwf	??___fldiv+1
  4979  0B96  0853               	movf	??___fldiv+1,w
  4980  0B97  00E2               	movwf	___fldiv@bexp
  4981  0B98                     l2222:	
  4982  0B98  1FD0               	btfss	___fldiv@b+2,7
  4983  0B99  2B9B               	goto	u2741
  4984  0B9A  2B9C               	goto	u2740
  4985  0B9B                     u2741:	
  4986  0B9B  2B9D               	goto	l2226
  4987  0B9C                     u2740:	
  4988  0B9C                     l2224:	
  4989  0B9C  1462               	bsf	___fldiv@bexp,0
  4990  0B9D                     l2226:	
  4991  0B9D  0862               	movf	___fldiv@bexp,w
  4992  0B9E  1903               	btfsc	3,2
  4993  0B9F  2BA1               	goto	u2751
  4994  0BA0  2BA2               	goto	u2750
  4995  0BA1                     u2751:	
  4996  0BA1  2BB2               	goto	l2236
  4997  0BA2                     u2750:	
  4998  0BA2                     l2228:	
  4999  0BA2  0A62               	incf	___fldiv@bexp,w
  5000  0BA3  1D03               	btfss	3,2
  5001  0BA4  2BA6               	goto	u2761
  5002  0BA5  2BA7               	goto	u2760
  5003  0BA6                     u2761:	
  5004  0BA6  2BAF               	goto	l2232
  5005  0BA7                     u2760:	
  5006  0BA7                     l2230:	
  5007  0BA7  3000               	movlw	0
  5008  0BA8  00D1               	movwf	___fldiv@b+3
  5009  0BA9  3000               	movlw	0
  5010  0BAA  00D0               	movwf	___fldiv@b+2
  5011  0BAB  3000               	movlw	0
  5012  0BAC  00CF               	movwf	___fldiv@b+1
  5013  0BAD  3000               	movlw	0
  5014  0BAE  00CE               	movwf	___fldiv@b
  5015  0BAF                     l2232:	
  5016  0BAF  17D0               	bsf	___fldiv@b+2,7
  5017  0BB0                     l2234:	
  5018  0BB0  01D1               	clrf	___fldiv@b+3
  5019  0BB1  2BBA               	goto	l2238
  5020  0BB2                     l2236:	
  5021  0BB2  3000               	movlw	0
  5022  0BB3  00D1               	movwf	___fldiv@b+3
  5023  0BB4  3000               	movlw	0
  5024  0BB5  00D0               	movwf	___fldiv@b+2
  5025  0BB6  3000               	movlw	0
  5026  0BB7  00CF               	movwf	___fldiv@b+1
  5027  0BB8  3000               	movlw	0
  5028  0BB9  00CE               	movwf	___fldiv@b
  5029  0BBA                     l2238:	
  5030  0BBA  084D               	movf	___fldiv@a+3,w
  5031  0BBB  3980               	andlw	128
  5032  0BBC  00D2               	movwf	??___fldiv
  5033  0BBD  0852               	movf	??___fldiv,w
  5034  0BBE  06DB               	xorwf	___fldiv@sign,f
  5035  0BBF                     l2240:	
  5036  0BBF  084D               	movf	___fldiv@a+3,w
  5037  0BC0  00D2               	movwf	??___fldiv
  5038  0BC1  0752               	addwf	??___fldiv,w
  5039  0BC2  00D3               	movwf	??___fldiv+1
  5040  0BC3  0853               	movf	??___fldiv+1,w
  5041  0BC4  00E3               	movwf	___fldiv@aexp
  5042  0BC5                     l2242:	
  5043  0BC5  1FCC               	btfss	___fldiv@a+2,7
  5044  0BC6  2BC8               	goto	u2771
  5045  0BC7  2BC9               	goto	u2770
  5046  0BC8                     u2771:	
  5047  0BC8  2BCA               	goto	l2246
  5048  0BC9                     u2770:	
  5049  0BC9                     l2244:	
  5050  0BC9  1463               	bsf	___fldiv@aexp,0
  5051  0BCA                     l2246:	
  5052  0BCA  0863               	movf	___fldiv@aexp,w
  5053  0BCB  1903               	btfsc	3,2
  5054  0BCC  2BCE               	goto	u2781
  5055  0BCD  2BCF               	goto	u2780
  5056  0BCE                     u2781:	
  5057  0BCE  2BDF               	goto	l2256
  5058  0BCF                     u2780:	
  5059  0BCF                     l2248:	
  5060  0BCF  0A63               	incf	___fldiv@aexp,w
  5061  0BD0  1D03               	btfss	3,2
  5062  0BD1  2BD3               	goto	u2791
  5063  0BD2  2BD4               	goto	u2790
  5064  0BD3                     u2791:	
  5065  0BD3  2BDC               	goto	l2252
  5066  0BD4                     u2790:	
  5067  0BD4                     l2250:	
  5068  0BD4  3000               	movlw	0
  5069  0BD5  00CD               	movwf	___fldiv@a+3
  5070  0BD6  3000               	movlw	0
  5071  0BD7  00CC               	movwf	___fldiv@a+2
  5072  0BD8  3000               	movlw	0
  5073  0BD9  00CB               	movwf	___fldiv@a+1
  5074  0BDA  3000               	movlw	0
  5075  0BDB  00CA               	movwf	___fldiv@a
  5076  0BDC                     l2252:	
  5077  0BDC  17CC               	bsf	___fldiv@a+2,7
  5078  0BDD                     l2254:	
  5079  0BDD  01CD               	clrf	___fldiv@a+3
  5080  0BDE  2BE7               	goto	l637
  5081  0BDF                     l2256:	
  5082  0BDF  3000               	movlw	0
  5083  0BE0  00CD               	movwf	___fldiv@a+3
  5084  0BE1  3000               	movlw	0
  5085  0BE2  00CC               	movwf	___fldiv@a+2
  5086  0BE3  3000               	movlw	0
  5087  0BE4  00CB               	movwf	___fldiv@a+1
  5088  0BE5  3000               	movlw	0
  5089  0BE6  00CA               	movwf	___fldiv@a
  5090  0BE7                     l637:	
  5091  0BE7  084D               	movf	___fldiv@a+3,w
  5092  0BE8  044C               	iorwf	___fldiv@a+2,w
  5093  0BE9  044B               	iorwf	___fldiv@a+1,w
  5094  0BEA  044A               	iorwf	___fldiv@a,w
  5095  0BEB  1D03               	skipz
  5096  0BEC  2BEE               	goto	u2801
  5097  0BED  2BEF               	goto	u2800
  5098  0BEE                     u2801:	
  5099  0BEE  2C08               	goto	l2266
  5100  0BEF                     u2800:	
  5101  0BEF                     l2258:	
  5102  0BEF  3000               	movlw	0
  5103  0BF0  00D1               	movwf	___fldiv@b+3
  5104  0BF1  3000               	movlw	0
  5105  0BF2  00D0               	movwf	___fldiv@b+2
  5106  0BF3  3000               	movlw	0
  5107  0BF4  00CF               	movwf	___fldiv@b+1
  5108  0BF5  3000               	movlw	0
  5109  0BF6  00CE               	movwf	___fldiv@b
  5110  0BF7  3080               	movlw	128
  5111  0BF8  04D0               	iorwf	___fldiv@b+2,f
  5112  0BF9  307F               	movlw	127
  5113  0BFA  04D1               	iorwf	___fldiv@b+3,f
  5114  0BFB                     l2260:	
  5115  0BFB  085B               	movf	___fldiv@sign,w
  5116  0BFC  00D2               	movwf	??___fldiv
  5117  0BFD  0852               	movf	??___fldiv,w
  5118  0BFE  04D1               	iorwf	___fldiv@b+3,f
  5119  0BFF                     l2262:	
  5120  0BFF  0851               	movf	___fldiv@b+3,w
  5121  0C00  00CD               	movwf	?___fldiv+3
  5122  0C01  0850               	movf	___fldiv@b+2,w
  5123  0C02  00CC               	movwf	?___fldiv+2
  5124  0C03  084F               	movf	___fldiv@b+1,w
  5125  0C04  00CB               	movwf	?___fldiv+1
  5126  0C05  084E               	movf	___fldiv@b,w
  5127  0C06  00CA               	movwf	?___fldiv
  5128  0C07  2D67               	goto	l639
  5129  0C08                     l2266:	
  5130  0C08  0862               	movf	___fldiv@bexp,w
  5131  0C09  1D03               	btfss	3,2
  5132  0C0A  2C0C               	goto	u2811
  5133  0C0B  2C0D               	goto	u2810
  5134  0C0C                     u2811:	
  5135  0C0C  2C16               	goto	l2272
  5136  0C0D                     u2810:	
  5137  0C0D                     l2268:	
  5138  0C0D  3000               	movlw	0
  5139  0C0E  00CD               	movwf	?___fldiv+3
  5140  0C0F  3000               	movlw	0
  5141  0C10  00CC               	movwf	?___fldiv+2
  5142  0C11  3000               	movlw	0
  5143  0C12  00CB               	movwf	?___fldiv+1
  5144  0C13  3000               	movlw	0
  5145  0C14  00CA               	movwf	?___fldiv
  5146  0C15  2D67               	goto	l639
  5147  0C16                     l2272:	
  5148  0C16  0862               	movf	___fldiv@bexp,w
  5149  0C17  00D2               	movwf	??___fldiv
  5150  0C18  01D3               	clrf	??___fldiv+1
  5151  0C19  0853               	movf	??___fldiv+1,w
  5152  0C1A  00D5               	movwf	??___fldiv+3
  5153  0C1B  0863               	movf	___fldiv@aexp,w
  5154  0C1C  0252               	subwf	??___fldiv,w
  5155  0C1D  00D4               	movwf	??___fldiv+2
  5156  0C1E  1C03               	skipc
  5157  0C1F  03D5               	decf	??___fldiv+3,f
  5158  0C20  0854               	movf	??___fldiv+2,w
  5159  0C21  3E7F               	addlw	127
  5160  0C22  00DC               	movwf	___fldiv@new_exp
  5161  0C23  0855               	movf	??___fldiv+3,w
  5162  0C24  1803               	skipnc
  5163  0C25  3E01               	addlw	1
  5164  0C26  3E00               	addlw	0
  5165  0C27  00DD               	movwf	___fldiv@new_exp+1
  5166  0C28                     l2274:	
  5167  0C28  0851               	movf	___fldiv@b+3,w
  5168  0C29  00DA               	movwf	___fldiv@rem+3
  5169  0C2A  0850               	movf	___fldiv@b+2,w
  5170  0C2B  00D9               	movwf	___fldiv@rem+2
  5171  0C2C  084F               	movf	___fldiv@b+1,w
  5172  0C2D  00D8               	movwf	___fldiv@rem+1
  5173  0C2E  084E               	movf	___fldiv@b,w
  5174  0C2F  00D7               	movwf	___fldiv@rem
  5175  0C30                     l2276:	
  5176  0C30  3000               	movlw	0
  5177  0C31  00D1               	movwf	___fldiv@b+3
  5178  0C32  3000               	movlw	0
  5179  0C33  00D0               	movwf	___fldiv@b+2
  5180  0C34  3000               	movlw	0
  5181  0C35  00CF               	movwf	___fldiv@b+1
  5182  0C36  3000               	movlw	0
  5183  0C37  00CE               	movwf	___fldiv@b
  5184  0C38                     l2278:	
  5185  0C38  3000               	movlw	0
  5186  0C39  00E1               	movwf	___fldiv@grs+3
  5187  0C3A  3000               	movlw	0
  5188  0C3B  00E0               	movwf	___fldiv@grs+2
  5189  0C3C  3000               	movlw	0
  5190  0C3D  00DF               	movwf	___fldiv@grs+1
  5191  0C3E  3000               	movlw	0
  5192  0C3F  00DE               	movwf	___fldiv@grs
  5193  0C40                     l2280:	
  5194  0C40  01E3               	clrf	___fldiv@aexp
  5195  0C41  2C8C               	goto	l2300
  5196  0C42                     l2282:	
  5197  0C42  0863               	movf	___fldiv@aexp,w
  5198  0C43  1903               	btfsc	3,2
  5199  0C44  2C46               	goto	u2821
  5200  0C45  2C47               	goto	u2820
  5201  0C46                     u2821:	
  5202  0C46  2C67               	goto	l2292
  5203  0C47                     u2820:	
  5204  0C47                     l2284:	
  5205  0C47  3001               	movlw	1
  5206  0C48  00D2               	movwf	??___fldiv
  5207  0C49                     u2835:	
  5208  0C49  1003               	clrc
  5209  0C4A  0DD7               	rlf	___fldiv@rem,f
  5210  0C4B  0DD8               	rlf	___fldiv@rem+1,f
  5211  0C4C  0DD9               	rlf	___fldiv@rem+2,f
  5212  0C4D  0DDA               	rlf	___fldiv@rem+3,f
  5213  0C4E  0BD2               	decfsz	??___fldiv,f
  5214  0C4F  2C49               	goto	u2835
  5215  0C50  3001               	movlw	1
  5216  0C51  00D2               	movwf	??___fldiv
  5217  0C52                     u2845:	
  5218  0C52  1003               	clrc
  5219  0C53  0DCE               	rlf	___fldiv@b,f
  5220  0C54  0DCF               	rlf	___fldiv@b+1,f
  5221  0C55  0DD0               	rlf	___fldiv@b+2,f
  5222  0C56  0DD1               	rlf	___fldiv@b+3,f
  5223  0C57  0BD2               	decfsz	??___fldiv,f
  5224  0C58  2C52               	goto	u2845
  5225  0C59                     l2286:	
  5226  0C59  1FE1               	btfss	___fldiv@grs+3,7
  5227  0C5A  2C5C               	goto	u2851
  5228  0C5B  2C5D               	goto	u2850
  5229  0C5C                     u2851:	
  5230  0C5C  2C5E               	goto	l2290
  5231  0C5D                     u2850:	
  5232  0C5D                     l2288:	
  5233  0C5D  144E               	bsf	___fldiv@b,0
  5234  0C5E                     l2290:	
  5235  0C5E  3001               	movlw	1
  5236  0C5F  00D2               	movwf	??___fldiv
  5237  0C60                     u2865:	
  5238  0C60  1003               	clrc
  5239  0C61  0DDE               	rlf	___fldiv@grs,f
  5240  0C62  0DDF               	rlf	___fldiv@grs+1,f
  5241  0C63  0DE0               	rlf	___fldiv@grs+2,f
  5242  0C64  0DE1               	rlf	___fldiv@grs+3,f
  5243  0C65  0BD2               	decfsz	??___fldiv,f
  5244  0C66  2C60               	goto	u2865
  5245  0C67                     l2292:	
  5246  0C67  084D               	movf	___fldiv@a+3,w
  5247  0C68  025A               	subwf	___fldiv@rem+3,w
  5248  0C69  1D03               	skipz
  5249  0C6A  2C75               	goto	u2875
  5250  0C6B  084C               	movf	___fldiv@a+2,w
  5251  0C6C  0259               	subwf	___fldiv@rem+2,w
  5252  0C6D  1D03               	skipz
  5253  0C6E  2C75               	goto	u2875
  5254  0C6F  084B               	movf	___fldiv@a+1,w
  5255  0C70  0258               	subwf	___fldiv@rem+1,w
  5256  0C71  1D03               	skipz
  5257  0C72  2C75               	goto	u2875
  5258  0C73  084A               	movf	___fldiv@a,w
  5259  0C74  0257               	subwf	___fldiv@rem,w
  5260  0C75                     u2875:	
  5261  0C75  1C03               	skipc
  5262  0C76  2C78               	goto	u2871
  5263  0C77  2C79               	goto	u2870
  5264  0C78                     u2871:	
  5265  0C78  2C88               	goto	l2298
  5266  0C79                     u2870:	
  5267  0C79                     l2294:	
  5268  0C79  1761               	bsf	___fldiv@grs+3,6
  5269  0C7A                     l2296:	
  5270  0C7A  084A               	movf	___fldiv@a,w
  5271  0C7B  02D7               	subwf	___fldiv@rem,f
  5272  0C7C  084B               	movf	___fldiv@a+1,w
  5273  0C7D  1C03               	skipc
  5274  0C7E  0F4B               	incfsz	___fldiv@a+1,w
  5275  0C7F  02D8               	subwf	___fldiv@rem+1,f
  5276  0C80  084C               	movf	___fldiv@a+2,w
  5277  0C81  1C03               	skipc
  5278  0C82  0F4C               	incfsz	___fldiv@a+2,w
  5279  0C83  02D9               	subwf	___fldiv@rem+2,f
  5280  0C84  084D               	movf	___fldiv@a+3,w
  5281  0C85  1C03               	skipc
  5282  0C86  0F4D               	incfsz	___fldiv@a+3,w
  5283  0C87  02DA               	subwf	___fldiv@rem+3,f
  5284  0C88                     l2298:	
  5285  0C88  3001               	movlw	1
  5286  0C89  00D2               	movwf	??___fldiv
  5287  0C8A  0852               	movf	??___fldiv,w
  5288  0C8B  07E3               	addwf	___fldiv@aexp,f
  5289  0C8C                     l2300:	
  5290  0C8C  301A               	movlw	26
  5291  0C8D  0263               	subwf	___fldiv@aexp,w
  5292  0C8E  1C03               	skipc
  5293  0C8F  2C91               	goto	u2881
  5294  0C90  2C92               	goto	u2880
  5295  0C91                     u2881:	
  5296  0C91  2C42               	goto	l2282
  5297  0C92                     u2880:	
  5298  0C92                     l2302:	
  5299  0C92  085A               	movf	___fldiv@rem+3,w
  5300  0C93  0459               	iorwf	___fldiv@rem+2,w
  5301  0C94  0458               	iorwf	___fldiv@rem+1,w
  5302  0C95  0457               	iorwf	___fldiv@rem,w
  5303  0C96  1903               	skipnz
  5304  0C97  2C99               	goto	u2891
  5305  0C98  2C9A               	goto	u2890
  5306  0C99                     u2891:	
  5307  0C99  2CB9               	goto	l2316
  5308  0C9A                     u2890:	
  5309  0C9A                     l2304:	
  5310  0C9A  145E               	bsf	___fldiv@grs,0
  5311  0C9B  2CB9               	goto	l2316
  5312  0C9C                     l2306:	
  5313  0C9C  3001               	movlw	1
  5314  0C9D  00D2               	movwf	??___fldiv
  5315  0C9E                     u2905:	
  5316  0C9E  1003               	clrc
  5317  0C9F  0DCE               	rlf	___fldiv@b,f
  5318  0CA0  0DCF               	rlf	___fldiv@b+1,f
  5319  0CA1  0DD0               	rlf	___fldiv@b+2,f
  5320  0CA2  0DD1               	rlf	___fldiv@b+3,f
  5321  0CA3  0BD2               	decfsz	??___fldiv,f
  5322  0CA4  2C9E               	goto	u2905
  5323  0CA5                     l2308:	
  5324  0CA5  1FE1               	btfss	___fldiv@grs+3,7
  5325  0CA6  2CA8               	goto	u2911
  5326  0CA7  2CA9               	goto	u2910
  5327  0CA8                     u2911:	
  5328  0CA8  2CAA               	goto	l2312
  5329  0CA9                     u2910:	
  5330  0CA9                     l2310:	
  5331  0CA9  144E               	bsf	___fldiv@b,0
  5332  0CAA                     l2312:	
  5333  0CAA  3001               	movlw	1
  5334  0CAB  00D2               	movwf	??___fldiv
  5335  0CAC                     u2925:	
  5336  0CAC  1003               	clrc
  5337  0CAD  0DDE               	rlf	___fldiv@grs,f
  5338  0CAE  0DDF               	rlf	___fldiv@grs+1,f
  5339  0CAF  0DE0               	rlf	___fldiv@grs+2,f
  5340  0CB0  0DE1               	rlf	___fldiv@grs+3,f
  5341  0CB1  0BD2               	decfsz	??___fldiv,f
  5342  0CB2  2CAC               	goto	u2925
  5343  0CB3                     l2314:	
  5344  0CB3  30FF               	movlw	255
  5345  0CB4  07DC               	addwf	___fldiv@new_exp,f
  5346  0CB5  1803               	skipnc
  5347  0CB6  0ADD               	incf	___fldiv@new_exp+1,f
  5348  0CB7  30FF               	movlw	255
  5349  0CB8  07DD               	addwf	___fldiv@new_exp+1,f
  5350  0CB9                     l2316:	
  5351  0CB9  1FD0               	btfss	___fldiv@b+2,7
  5352  0CBA  2CBC               	goto	u2931
  5353  0CBB  2CBD               	goto	u2930
  5354  0CBC                     u2931:	
  5355  0CBC  2C9C               	goto	l2306
  5356  0CBD                     u2930:	
  5357  0CBD                     l2318:	
  5358  0CBD  01E3               	clrf	___fldiv@aexp
  5359  0CBE                     l2320:	
  5360  0CBE  1FE1               	btfss	___fldiv@grs+3,7
  5361  0CBF  2CC1               	goto	u2941
  5362  0CC0  2CC2               	goto	u2940
  5363  0CC1                     u2941:	
  5364  0CC1  2CDE               	goto	l2328
  5365  0CC2                     u2940:	
  5366  0CC2                     l2322:	
  5367  0CC2  30FF               	movlw	255
  5368  0CC3  055E               	andwf	___fldiv@grs,w
  5369  0CC4  00D2               	movwf	??___fldiv
  5370  0CC5  30FF               	movlw	255
  5371  0CC6  055F               	andwf	___fldiv@grs+1,w
  5372  0CC7  00D3               	movwf	??___fldiv+1
  5373  0CC8  30FF               	movlw	255
  5374  0CC9  0560               	andwf	___fldiv@grs+2,w
  5375  0CCA  00D4               	movwf	??___fldiv+2
  5376  0CCB  307F               	movlw	127
  5377  0CCC  0561               	andwf	___fldiv@grs+3,w
  5378  0CCD  00D5               	movwf	??___fldiv+3
  5379  0CCE  0855               	movf	??___fldiv+3,w
  5380  0CCF  0454               	iorwf	??___fldiv+2,w
  5381  0CD0  0453               	iorwf	??___fldiv+1,w
  5382  0CD1  0452               	iorwf	??___fldiv,w
  5383  0CD2  1903               	skipnz
  5384  0CD3  2CD5               	goto	u2951
  5385  0CD4  2CD6               	goto	u2950
  5386  0CD5                     u2951:	
  5387  0CD5  2CD9               	goto	l653
  5388  0CD6                     u2950:	
  5389  0CD6                     l2324:	
  5390  0CD6  01E3               	clrf	___fldiv@aexp
  5391  0CD7  0AE3               	incf	___fldiv@aexp,f
  5392  0CD8  2CDE               	goto	l2328
  5393  0CD9                     l653:	
  5394  0CD9  1C4E               	btfss	___fldiv@b,0
  5395  0CDA  2CDC               	goto	u2961
  5396  0CDB  2CDD               	goto	u2960
  5397  0CDC                     u2961:	
  5398  0CDC  2CDE               	goto	l2328
  5399  0CDD                     u2960:	
  5400  0CDD  2CD6               	goto	l2324
  5401  0CDE                     l2328:	
  5402  0CDE  0863               	movf	___fldiv@aexp,w
  5403  0CDF  1903               	btfsc	3,2
  5404  0CE0  2CE2               	goto	u2971
  5405  0CE1  2CE3               	goto	u2970
  5406  0CE2                     u2971:	
  5407  0CE2  2D14               	goto	l2338
  5408  0CE3                     u2970:	
  5409  0CE3                     l2330:	
  5410  0CE3  3001               	movlw	1
  5411  0CE4  07CE               	addwf	___fldiv@b,f
  5412  0CE5  3000               	movlw	0
  5413  0CE6  1803               	skipnc
  5414  0CE7  3001               	movlw	1
  5415  0CE8  07CF               	addwf	___fldiv@b+1,f
  5416  0CE9  3000               	movlw	0
  5417  0CEA  1803               	skipnc
  5418  0CEB  3001               	movlw	1
  5419  0CEC  07D0               	addwf	___fldiv@b+2,f
  5420  0CED  3000               	movlw	0
  5421  0CEE  1803               	skipnc
  5422  0CEF  3001               	movlw	1
  5423  0CF0  07D1               	addwf	___fldiv@b+3,f
  5424  0CF1                     l2332:	
  5425  0CF1  1C51               	btfss	___fldiv@b+3,0
  5426  0CF2  2CF4               	goto	u2981
  5427  0CF3  2CF5               	goto	u2980
  5428  0CF4                     u2981:	
  5429  0CF4  2D14               	goto	l2338
  5430  0CF5                     u2980:	
  5431  0CF5                     l2334:	
  5432  0CF5  084E               	movf	___fldiv@b,w
  5433  0CF6  00D2               	movwf	??___fldiv
  5434  0CF7  084F               	movf	___fldiv@b+1,w
  5435  0CF8  00D3               	movwf	??___fldiv+1
  5436  0CF9  0850               	movf	___fldiv@b+2,w
  5437  0CFA  00D4               	movwf	??___fldiv+2
  5438  0CFB  0851               	movf	___fldiv@b+3,w
  5439  0CFC  00D5               	movwf	??___fldiv+3
  5440  0CFD  3001               	movlw	1
  5441  0CFE  00D6               	movwf	??___fldiv+4
  5442  0CFF                     u2995:	
  5443  0CFF  0D55               	rlf	??___fldiv+3,w
  5444  0D00  0CD5               	rrf	??___fldiv+3,f
  5445  0D01  0CD4               	rrf	??___fldiv+2,f
  5446  0D02  0CD3               	rrf	??___fldiv+1,f
  5447  0D03  0CD2               	rrf	??___fldiv,f
  5448  0D04                     u2990:	
  5449  0D04  0BD6               	decfsz	??___fldiv+4,f
  5450  0D05  2CFF               	goto	u2995
  5451  0D06  0855               	movf	??___fldiv+3,w
  5452  0D07  00D1               	movwf	___fldiv@b+3
  5453  0D08  0854               	movf	??___fldiv+2,w
  5454  0D09  00D0               	movwf	___fldiv@b+2
  5455  0D0A  0853               	movf	??___fldiv+1,w
  5456  0D0B  00CF               	movwf	___fldiv@b+1
  5457  0D0C  0852               	movf	??___fldiv,w
  5458  0D0D  00CE               	movwf	___fldiv@b
  5459  0D0E                     l2336:	
  5460  0D0E  3001               	movlw	1
  5461  0D0F  07DC               	addwf	___fldiv@new_exp,f
  5462  0D10  1803               	skipnc
  5463  0D11  0ADD               	incf	___fldiv@new_exp+1,f
  5464  0D12  3000               	movlw	0
  5465  0D13  07DD               	addwf	___fldiv@new_exp+1,f
  5466  0D14                     l2338:	
  5467  0D14  085D               	movf	___fldiv@new_exp+1,w
  5468  0D15  3A80               	xorlw	128
  5469  0D16  00FF               	movwf	btemp+1
  5470  0D17  3080               	movlw	128
  5471  0D18  027F               	subwf	btemp+1,w
  5472  0D19  1D03               	skipz
  5473  0D1A  2D1D               	goto	u3005
  5474  0D1B  30FF               	movlw	255
  5475  0D1C  025C               	subwf	___fldiv@new_exp,w
  5476  0D1D                     u3005:	
  5477  0D1D  1C03               	skipc
  5478  0D1E  2D20               	goto	u3001
  5479  0D1F  2D21               	goto	u3000
  5480  0D20                     u3001:	
  5481  0D20  2D2F               	goto	l2342
  5482  0D21                     u3000:	
  5483  0D21                     l2340:	
  5484  0D21  30FF               	movlw	255
  5485  0D22  1283               	bcf	3,5	;RP0=0, select bank0
  5486  0D23  1303               	bcf	3,6	;RP1=0, select bank0
  5487  0D24  00DC               	movwf	___fldiv@new_exp
  5488  0D25  3000               	movlw	0
  5489  0D26  00DD               	movwf	___fldiv@new_exp+1
  5490  0D27  3000               	movlw	0
  5491  0D28  00D1               	movwf	___fldiv@b+3
  5492  0D29  3000               	movlw	0
  5493  0D2A  00D0               	movwf	___fldiv@b+2
  5494  0D2B  3000               	movlw	0
  5495  0D2C  00CF               	movwf	___fldiv@b+1
  5496  0D2D  3000               	movlw	0
  5497  0D2E  00CE               	movwf	___fldiv@b
  5498  0D2F                     l2342:	
  5499  0D2F  1283               	bcf	3,5	;RP0=0, select bank0
  5500  0D30  1303               	bcf	3,6	;RP1=0, select bank0
  5501  0D31  085D               	movf	___fldiv@new_exp+1,w
  5502  0D32  3A80               	xorlw	128
  5503  0D33  00FF               	movwf	btemp+1
  5504  0D34  3080               	movlw	128
  5505  0D35  027F               	subwf	btemp+1,w
  5506  0D36  1D03               	skipz
  5507  0D37  2D3A               	goto	u3015
  5508  0D38  3001               	movlw	1
  5509  0D39  025C               	subwf	___fldiv@new_exp,w
  5510  0D3A                     u3015:	
  5511  0D3A  1803               	skipnc
  5512  0D3B  2D3D               	goto	u3011
  5513  0D3C  2D3E               	goto	u3010
  5514  0D3D                     u3011:	
  5515  0D3D  2D4B               	goto	l659
  5516  0D3E                     u3010:	
  5517  0D3E                     l2344:	
  5518  0D3E  1283               	bcf	3,5	;RP0=0, select bank0
  5519  0D3F  1303               	bcf	3,6	;RP1=0, select bank0
  5520  0D40  01DC               	clrf	___fldiv@new_exp
  5521  0D41  01DD               	clrf	___fldiv@new_exp+1
  5522  0D42                     l2346:	
  5523  0D42  3000               	movlw	0
  5524  0D43  00D1               	movwf	___fldiv@b+3
  5525  0D44  3000               	movlw	0
  5526  0D45  00D0               	movwf	___fldiv@b+2
  5527  0D46  3000               	movlw	0
  5528  0D47  00CF               	movwf	___fldiv@b+1
  5529  0D48  3000               	movlw	0
  5530  0D49  00CE               	movwf	___fldiv@b
  5531  0D4A                     l2348:	
  5532  0D4A  01DB               	clrf	___fldiv@sign
  5533  0D4B                     l659:	
  5534  0D4B  1283               	bcf	3,5	;RP0=0, select bank0
  5535  0D4C  1303               	bcf	3,6	;RP1=0, select bank0
  5536  0D4D  085C               	movf	___fldiv@new_exp,w
  5537  0D4E  00D2               	movwf	??___fldiv
  5538  0D4F  0852               	movf	??___fldiv,w
  5539  0D50  00E2               	movwf	___fldiv@bexp
  5540  0D51                     l2350:	
  5541  0D51  1C62               	btfss	___fldiv@bexp,0
  5542  0D52  2D54               	goto	u3021
  5543  0D53  2D55               	goto	u3020
  5544  0D54                     u3021:	
  5545  0D54  2D57               	goto	l2354
  5546  0D55                     u3020:	
  5547  0D55                     l2352:	
  5548  0D55  17D0               	bsf	___fldiv@b+2,7
  5549  0D56  2D5B               	goto	l661
  5550  0D57                     l2354:	
  5551  0D57  307F               	movlw	127
  5552  0D58  00D2               	movwf	??___fldiv
  5553  0D59  0852               	movf	??___fldiv,w
  5554  0D5A  05D0               	andwf	___fldiv@b+2,f
  5555  0D5B                     l661:	
  5556  0D5B  0862               	movf	___fldiv@bexp,w
  5557  0D5C  00D2               	movwf	??___fldiv
  5558  0D5D  1003               	clrc
  5559  0D5E  0C52               	rrf	??___fldiv,w
  5560  0D5F  00D3               	movwf	??___fldiv+1
  5561  0D60  0853               	movf	??___fldiv+1,w
  5562  0D61  00D1               	movwf	___fldiv@b+3
  5563  0D62  085B               	movf	___fldiv@sign,w
  5564  0D63  00D2               	movwf	??___fldiv
  5565  0D64  0852               	movf	??___fldiv,w
  5566  0D65  04D1               	iorwf	___fldiv@b+3,f
  5567  0D66  2BFF               	goto	l2262
  5568  0D67                     l639:	
  5569  0D67  0008               	return
  5570  0D68                     __end_of___fldiv:	
  5571                           
  5572                           	psect	text13
  5573  082B                     __ptext13:	
  5574 ;; *************** function _Lcd_Write_Int *****************
  5575 ;; Defined at:
  5576 ;;		line 66 in file "LCD.c"
  5577 ;; Parameters:    Size  Location     Type
  5578 ;;  numero          1    wreg     unsigned char 
  5579 ;; Auto vars:     Size  Location     Type
  5580 ;;  numero          1   20[BANK0 ] unsigned char 
  5581 ;;  buffer          4   16[BANK0 ] unsigned char [4]
  5582 ;; Return value:  Size  Location     Type
  5583 ;;                  1    wreg      void 
  5584 ;; Registers used:
  5585 ;;		wreg, fsr0l, fsr0h, status,2, status,0, btemp+1, pclath, cstack
  5586 ;; Tracked objects:
  5587 ;;		On entry : 0/0
  5588 ;;		On exit  : 0/0
  5589 ;;		Unchanged: 0/0
  5590 ;; Data sizes:     COMMON   BANK0   BANK1   BANK3   BANK2
  5591 ;;      Params:         0       0       0       0       0
  5592 ;;      Locals:         0       5       0       0       0
  5593 ;;      Temps:          0       3       0       0       0
  5594 ;;      Totals:         0       8       0       0       0
  5595 ;;Total ram usage:        8 bytes
  5596 ;; Hardware stack levels used:    1
  5597 ;; Hardware stack levels required when called:    2
  5598 ;; This function calls:
  5599 ;;		_Lcd_Write_String
  5600 ;;		_sprintf
  5601 ;; This function is called by:
  5602 ;;		_main
  5603 ;; This function uses a non-reentrant model
  5604 ;;
  5605                           
  5606                           
  5607                           ;psect for function _Lcd_Write_Int
  5608  082B                     _Lcd_Write_Int:	
  5609                           
  5610                           ;incstack = 0
  5611                           ; Regs used in _Lcd_Write_Int: [wreg-fsr0h+status,2+status,0+btemp+1+pclath+cstack]
  5612                           ;Lcd_Write_Int@numero stored from wreg
  5613  082B  1283               	bcf	3,5	;RP0=0, select bank0
  5614  082C  1303               	bcf	3,6	;RP1=0, select bank0
  5615  082D  00B4               	movwf	Lcd_Write_Int@numero
  5616  082E                     l2174:	
  5617                           
  5618                           ;LCD.c: 67:     char buffer [4];;LCD.c: 68:     sprintf (buffer, "%d", numero);
  5619  082E  300B               	movlw	(low ((STR_5-__stringbase)| (0+32768)))& (0+255)
  5620  082F  00AD               	movwf	??_Lcd_Write_Int
  5621  0830  082D               	movf	??_Lcd_Write_Int,w
  5622  0831  00A0               	movwf	sprintf@f
  5623  0832  0834               	movf	Lcd_Write_Int@numero,w
  5624  0833  00AE               	movwf	??_Lcd_Write_Int+1
  5625  0834  01AF               	clrf	??_Lcd_Write_Int+2
  5626  0835  082E               	movf	??_Lcd_Write_Int+1,w
  5627  0836  00A1               	movwf	?_sprintf+1
  5628  0837  082F               	movf	??_Lcd_Write_Int+2,w
  5629  0838  00A2               	movwf	?_sprintf+2
  5630  0839  3030               	movlw	(low (Lcd_Write_Int@buffer| 0))& (0+255)
  5631  083A  120A  118A  204A  120A  158A  	fcall	_sprintf
  5632                           
  5633                           ;LCD.c: 69:     Lcd_Write_String(buffer);
  5634  083F  3030               	movlw	(low (Lcd_Write_Int@buffer| 0))& (0+255)
  5635  0840  00F3               	movwf	Lcd_Write_String@var
  5636  0841  3000               	movlw	0
  5637  0842  00F4               	movwf	Lcd_Write_String@var+1
  5638  0843  120A  158A  215C  120A  158A  	fcall	_Lcd_Write_String
  5639  0848                     l174:	
  5640  0848  0008               	return
  5641  0849                     __end_of_Lcd_Write_Int:	
  5642                           
  5643                           	psect	text14
  5644  004A                     __ptext14:	
  5645 ;; *************** function _sprintf *****************
  5646 ;; Defined at:
  5647 ;;		line 505 in file "C:\Program Files (x86)\Microchip\xc8\v2.10\pic\sources\c90\common\doprnt.c"
  5648 ;; Parameters:    Size  Location     Type
  5649 ;;  sp              1    wreg     PTR unsigned char 
  5650 ;;		 -> Lcd_Write_Int@buffer(4), 
  5651 ;;  f               1    0[BANK0 ] PTR const unsigned char 
  5652 ;;		 -> STR_5(3), 
  5653 ;; Auto vars:     Size  Location     Type
  5654 ;;  sp              1   11[BANK0 ] PTR unsigned char 
  5655 ;;		 -> Lcd_Write_Int@buffer(4), 
  5656 ;;  tmpval          4    0        struct .
  5657 ;;  val             2    9[BANK0 ] unsigned int 
  5658 ;;  cp              2    0        PTR const unsigned char 
  5659 ;;  len             2    0        unsigned int 
  5660 ;;  c               1   12[BANK0 ] unsigned char 
  5661 ;;  prec            1    8[BANK0 ] char 
  5662 ;;  flag            1    7[BANK0 ] unsigned char 
  5663 ;;  ap              1    6[BANK0 ] PTR void [1]
  5664 ;;		 -> ?_sprintf(2), 
  5665 ;; Return value:  Size  Location     Type
  5666 ;;                  2    0[BANK0 ] int 
  5667 ;; Registers used:
  5668 ;;		wreg, fsr0l, fsr0h, status,2, status,0, btemp+1, pclath, cstack
  5669 ;; Tracked objects:
  5670 ;;		On entry : 0/0
  5671 ;;		On exit  : 0/0
  5672 ;;		Unchanged: 0/0
  5673 ;; Data sizes:     COMMON   BANK0   BANK1   BANK3   BANK2
  5674 ;;      Params:         0       3       0       0       0
  5675 ;;      Locals:         0       7       0       0       0
  5676 ;;      Temps:          0       3       0       0       0
  5677 ;;      Totals:         0      13       0       0       0
  5678 ;;Total ram usage:       13 bytes
  5679 ;; Hardware stack levels used:    1
  5680 ;; Hardware stack levels required when called:    1
  5681 ;; This function calls:
  5682 ;;		___lwdiv
  5683 ;;		___lwmod
  5684 ;; This function is called by:
  5685 ;;		_Lcd_Write_Int
  5686 ;; This function uses a non-reentrant model
  5687 ;;
  5688                           
  5689                           
  5690                           ;psect for function _sprintf
  5691  004A                     _sprintf:	
  5692                           
  5693                           ;incstack = 0
  5694                           ; Regs used in _sprintf: [wreg-fsr0h+status,2+status,0+btemp+1+pclath+cstack]
  5695                           ;sprintf@sp stored from wreg
  5696  004A  1283               	bcf	3,5	;RP0=0, select bank0
  5697  004B  1303               	bcf	3,6	;RP1=0, select bank0
  5698  004C  00AB               	movwf	sprintf@sp
  5699  004D                     l1860:	
  5700                           
  5701                           ;C:\Program Files (x86)\Microchip\xc8\v2.10\pic\sources\c90\common\doprnt.c: 505: sprint
      +                          f(char * sp, const char * f, ...);C:\Program Files (x86)\Microchip\xc8\v2.10\pic\sources
      +                          \c90\common\doprnt.c: 506: {;C:\Program Files (x86)\Microchip\xc8\v2.10\pic\sources\c90\
      +                          common\doprnt.c: 507:  va_list ap;;C:\Program Files (x86)\Microchip\xc8\v2.10\pic\source
      +                          s\c90\common\doprnt.c: 512:  char c;;C:\Program Files (x86)\Microchip\xc8\v2.10\pic\sour
      +                          ces\c90\common\doprnt.c: 521:  signed char prec;;C:\Program Files (x86)\Microchip\xc8\v2
      +                          .10\pic\sources\c90\common\doprnt.c: 525:  unsigned char flag;
  5702  004D  3021               	movlw	(low ((?_sprintf| 0+1)))& (0+255)
  5703  004E  00A3               	movwf	??_sprintf
  5704  004F  0823               	movf	??_sprintf,w
  5705  0050  00A6               	movwf	sprintf@ap
  5706                           
  5707                           ;C:\Program Files (x86)\Microchip\xc8\v2.10\pic\sources\c90\common\doprnt.c: 553:  while
      +                          ((c = *f++)) {
  5708  0051  291B               	goto	l1912
  5709  0052                     l1862:	
  5710                           
  5711                           ;C:\Program Files (x86)\Microchip\xc8\v2.10\pic\sources\c90\common\doprnt.c: 555:   if(c
      +                           != '%')
  5712  0052  3025               	movlw	37
  5713  0053  062C               	xorwf	sprintf@c,w
  5714  0054  1903               	btfsc	3,2
  5715  0055  2857               	goto	u2051
  5716  0056  2858               	goto	u2050
  5717  0057                     u2051:	
  5718  0057  2864               	goto	l1868
  5719  0058                     u2050:	
  5720  0058                     l1864:	
  5721                           
  5722                           ;C:\Program Files (x86)\Microchip\xc8\v2.10\pic\sources\c90\common\doprnt.c: 557:   {;C:
      +                          \Program Files (x86)\Microchip\xc8\v2.10\pic\sources\c90\common\doprnt.c: 558:    ((*sp+
      +                          + = (c)));
  5723  0058  082C               	movf	sprintf@c,w
  5724  0059  00A3               	movwf	??_sprintf
  5725  005A  082B               	movf	sprintf@sp,w
  5726  005B  0084               	movwf	4
  5727  005C  0823               	movf	??_sprintf,w
  5728  005D  1383               	bcf	3,7	;select IRP bank0
  5729  005E  0080               	movwf	0
  5730  005F                     l1866:	
  5731  005F  3001               	movlw	1
  5732  0060  00A3               	movwf	??_sprintf
  5733  0061  0823               	movf	??_sprintf,w
  5734  0062  07AB               	addwf	sprintf@sp,f
  5735                           
  5736                           ;C:\Program Files (x86)\Microchip\xc8\v2.10\pic\sources\c90\common\doprnt.c: 559:    con
      +                          tinue;
  5737  0063  291B               	goto	l1912
  5738  0064                     l1868:	
  5739                           
  5740                           ;C:\Program Files (x86)\Microchip\xc8\v2.10\pic\sources\c90\common\doprnt.c: 565:   flag
      +                           = 0;
  5741  0064  01A7               	clrf	sprintf@flag
  5742  0065                     l1872:	
  5743                           ;C:\Program Files (x86)\Microchip\xc8\v2.10\pic\sources\c90\common\doprnt.c: 661:   swit
      +                          ch(c = *f++) {
  5744                           
  5745  0065  3001               	movlw	1
  5746  0066  07A0               	addwf	sprintf@f,f
  5747  0067  30FF               	movlw	-1
  5748  0068  0720               	addwf	sprintf@f,w
  5749  0069  0084               	movwf	4
  5750  006A  120A  158A  200A  120A  118A  	fcall	stringdir
  5751  006F  00AC               	movwf	sprintf@c
  5752  0070  00A3               	movwf	??_sprintf
  5753  0071  01A4               	clrf	??_sprintf+1
  5754                           
  5755                           ; Switch on 2 bytes has been partitioned into a top level switch of size 1, and 1 sub-sw
      +                          itches
  5756                           ; Switch size 1, requested type "simple"
  5757                           ; Number of cases is 1, Range of values is 0 to 0
  5758                           ; switch strategies available:
  5759                           ; Name         Instructions Cycles
  5760                           ; simple_byte            4     3 (average)
  5761                           ; direct_byte           11     8 (fixed)
  5762                           ; jumptable            260     6 (fixed)
  5763                           ;	Chosen strategy is simple_byte
  5764  0072  0824               	movf	??_sprintf+1,w
  5765  0073  3A00               	xorlw	0	; case 0
  5766  0074  1903               	skipnz
  5767  0075  2877               	goto	l2644
  5768  0076  291B               	goto	l1912
  5769  0077                     l2644:	
  5770                           
  5771                           ; Switch size 1, requested type "simple"
  5772                           ; Number of cases is 3, Range of values is 0 to 105
  5773                           ; switch strategies available:
  5774                           ; Name         Instructions Cycles
  5775                           ; simple_byte           10     6 (average)
  5776                           ; jumptable            260     6 (fixed)
  5777                           ;	Chosen strategy is simple_byte
  5778  0077  0823               	movf	??_sprintf,w
  5779  0078  3A00               	xorlw	0	; case 0
  5780  0079  1903               	skipnz
  5781  007A  292D               	goto	l1914
  5782  007B  3A64               	xorlw	100	; case 100
  5783  007C  1903               	skipnz
  5784  007D  2882               	goto	l1874
  5785  007E  3A0D               	xorlw	13	; case 105
  5786  007F  1903               	skipnz
  5787  0080  2882               	goto	l1874
  5788  0081  291B               	goto	l1912
  5789  0082                     l1874:	
  5790                           
  5791                           ;C:\Program Files (x86)\Microchip\xc8\v2.10\pic\sources\c90\common\doprnt.c: 1279:   {;C
      +                          :\Program Files (x86)\Microchip\xc8\v2.10\pic\sources\c90\common\doprnt.c: 1285:     val
      +                           = (unsigned int)(*(int *)__va_arg((*(int **)ap), (int)0));
  5792  0082  0826               	movf	sprintf@ap,w
  5793  0083  0084               	movwf	4
  5794  0084  1383               	bcf	3,7	;select IRP bank0
  5795  0085  0800               	movf	0,w
  5796  0086  00A9               	movwf	sprintf@val
  5797  0087  0A84               	incf	4,f
  5798  0088  0800               	movf	0,w
  5799  0089  00AA               	movwf	sprintf@val+1
  5800  008A                     l1876:	
  5801  008A  3002               	movlw	2
  5802  008B  00A3               	movwf	??_sprintf
  5803  008C  0823               	movf	??_sprintf,w
  5804  008D  07A6               	addwf	sprintf@ap,f
  5805  008E                     l1878:	
  5806                           
  5807                           ;C:\Program Files (x86)\Microchip\xc8\v2.10\pic\sources\c90\common\doprnt.c: 1287:    if
      +                          ((int)val < 0) {
  5808  008E  1FAA               	btfss	sprintf@val+1,7
  5809  008F  2891               	goto	u2061
  5810  0090  2892               	goto	u2060
  5811  0091                     u2061:	
  5812  0091  289B               	goto	l1884
  5813  0092                     u2060:	
  5814  0092                     l1880:	
  5815                           
  5816                           ;C:\Program Files (x86)\Microchip\xc8\v2.10\pic\sources\c90\common\doprnt.c: 1288:     f
      +                          lag |= 0x03;
  5817  0092  3003               	movlw	3
  5818  0093  00A3               	movwf	??_sprintf
  5819  0094  0823               	movf	??_sprintf,w
  5820  0095  04A7               	iorwf	sprintf@flag,f
  5821  0096                     l1882:	
  5822                           
  5823                           ;C:\Program Files (x86)\Microchip\xc8\v2.10\pic\sources\c90\common\doprnt.c: 1289:     v
      +                          al = -val;
  5824  0096  09A9               	comf	sprintf@val,f
  5825  0097  09AA               	comf	sprintf@val+1,f
  5826  0098  0AA9               	incf	sprintf@val,f
  5827  0099  1903               	skipnz
  5828  009A  0AAA               	incf	sprintf@val+1,f
  5829  009B                     l1884:	
  5830                           
  5831                           ;C:\Program Files (x86)\Microchip\xc8\v2.10\pic\sources\c90\common\doprnt.c: 1292:   };C
      +                          :\Program Files (x86)\Microchip\xc8\v2.10\pic\sources\c90\common\doprnt.c: 1331:    for(
      +                          c = 1 ; c != sizeof dpowers/sizeof dpowers[0] ; c++)
  5832  009B  01AC               	clrf	sprintf@c
  5833  009C  0AAC               	incf	sprintf@c,f
  5834  009D                     l1890:	
  5835                           
  5836                           ;C:\Program Files (x86)\Microchip\xc8\v2.10\pic\sources\c90\common\doprnt.c: 1332:     i
      +                          f(val < dpowers[c])
  5837  009D  082C               	movf	sprintf@c,w
  5838  009E  00A3               	movwf	??_sprintf
  5839  009F  0723               	addwf	??_sprintf,w
  5840  00A0  3E01               	addlw	low ((_dpowers-__stringbase)| (0+32768))
  5841  00A1  0084               	movwf	4
  5842  00A2  120A  158A  200A  120A  118A  	fcall	stringdir
  5843  00A7  00A4               	movwf	??_sprintf+1
  5844  00A8  120A  158A  200A  120A  118A  	fcall	stringdir
  5845  00AD  00A5               	movwf	??_sprintf+2
  5846  00AE  0825               	movf	??_sprintf+2,w
  5847  00AF  022A               	subwf	sprintf@val+1,w
  5848  00B0  1D03               	skipz
  5849  00B1  28B4               	goto	u2075
  5850  00B2  0824               	movf	??_sprintf+1,w
  5851  00B3  0229               	subwf	sprintf@val,w
  5852  00B4                     u2075:	
  5853  00B4  1803               	skipnc
  5854  00B5  28B7               	goto	u2071
  5855  00B6  28B8               	goto	u2070
  5856  00B7                     u2071:	
  5857  00B7  28B9               	goto	l1894
  5858  00B8                     u2070:	
  5859  00B8  28C3               	goto	l1896
  5860  00B9                     l1894:	
  5861  00B9  3001               	movlw	1
  5862  00BA  00A3               	movwf	??_sprintf
  5863  00BB  0823               	movf	??_sprintf,w
  5864  00BC  07AC               	addwf	sprintf@c,f
  5865  00BD  3005               	movlw	5
  5866  00BE  062C               	xorwf	sprintf@c,w
  5867  00BF  1D03               	btfss	3,2
  5868  00C0  28C2               	goto	u2081
  5869  00C1  28C3               	goto	u2080
  5870  00C2                     u2081:	
  5871  00C2  289D               	goto	l1890
  5872  00C3                     u2080:	
  5873  00C3                     l1896:	
  5874                           
  5875                           ;C:\Program Files (x86)\Microchip\xc8\v2.10\pic\sources\c90\common\doprnt.c: 1448:   {;C
      +                          :\Program Files (x86)\Microchip\xc8\v2.10\pic\sources\c90\common\doprnt.c: 1464:    if(f
      +                          lag & 0x03)
  5876  00C3  0827               	movf	sprintf@flag,w
  5877  00C4  3903               	andlw	3
  5878  00C5  1903               	btfsc	3,2
  5879  00C6  28C8               	goto	u2091
  5880  00C7  28C9               	goto	u2090
  5881  00C8                     u2091:	
  5882  00C8  28D4               	goto	l1902
  5883  00C9                     u2090:	
  5884  00C9                     l1898:	
  5885                           
  5886                           ;C:\Program Files (x86)\Microchip\xc8\v2.10\pic\sources\c90\common\doprnt.c: 1465:     (
      +                          (*sp++ = ('-')));
  5887  00C9  302D               	movlw	45
  5888  00CA  00A3               	movwf	??_sprintf
  5889  00CB  082B               	movf	sprintf@sp,w
  5890  00CC  0084               	movwf	4
  5891  00CD  0823               	movf	??_sprintf,w
  5892  00CE  1383               	bcf	3,7	;select IRP bank0
  5893  00CF  0080               	movwf	0
  5894  00D0                     l1900:	
  5895  00D0  3001               	movlw	1
  5896  00D1  00A3               	movwf	??_sprintf
  5897  00D2  0823               	movf	??_sprintf,w
  5898  00D3  07AB               	addwf	sprintf@sp,f
  5899  00D4                     l1902:	
  5900                           
  5901                           ;C:\Program Files (x86)\Microchip\xc8\v2.10\pic\sources\c90\common\doprnt.c: 1495:   };C
      +                          :\Program Files (x86)\Microchip\xc8\v2.10\pic\sources\c90\common\doprnt.c: 1498:   prec 
      +                          = c;
  5902  00D4  082C               	movf	sprintf@c,w
  5903  00D5  00A3               	movwf	??_sprintf
  5904  00D6  0823               	movf	??_sprintf,w
  5905  00D7  00A8               	movwf	sprintf@prec
  5906                           
  5907                           ;C:\Program Files (x86)\Microchip\xc8\v2.10\pic\sources\c90\common\doprnt.c: 1500:   whi
      +                          le(prec--) {
  5908  00D8  2912               	goto	l1910
  5909  00D9                     l1904:	
  5910                           
  5911                           ;C:\Program Files (x86)\Microchip\xc8\v2.10\pic\sources\c90\common\doprnt.c: 1504:    {;
      +                          C:\Program Files (x86)\Microchip\xc8\v2.10\pic\sources\c90\common\doprnt.c: 1515:     c 
      +                          = (val / dpowers[(unsigned char)prec]) % 10 + '0';
  5912  00D9  300A               	movlw	10
  5913  00DA  00F8               	movwf	___lwmod@divisor
  5914  00DB  3000               	movlw	0
  5915  00DC  00F9               	movwf	___lwmod@divisor+1
  5916  00DD  0828               	movf	sprintf@prec,w
  5917  00DE  00A3               	movwf	??_sprintf
  5918  00DF  0723               	addwf	??_sprintf,w
  5919  00E0  3E01               	addlw	low ((_dpowers-__stringbase)| (0+32768))
  5920  00E1  0084               	movwf	4
  5921  00E2  120A  158A  200A  120A  118A  	fcall	stringdir
  5922  00E7  00F0               	movwf	___lwdiv@divisor
  5923  00E8  120A  158A  200A  120A  118A  	fcall	stringdir
  5924  00ED  00F1               	movwf	___lwdiv@divisor+1
  5925  00EE  082A               	movf	sprintf@val+1,w
  5926  00EF  00F3               	movwf	___lwdiv@dividend+1
  5927  00F0  0829               	movf	sprintf@val,w
  5928  00F1  00F2               	movwf	___lwdiv@dividend
  5929  00F2  120A  118A  2006  120A  118A  	fcall	___lwdiv
  5930  00F7  0871               	movf	?___lwdiv+1,w
  5931  00F8  00FB               	movwf	___lwmod@dividend+1
  5932  00F9  0870               	movf	?___lwdiv,w
  5933  00FA  00FA               	movwf	___lwmod@dividend
  5934  00FB  120A  158A  2122  120A  118A  	fcall	___lwmod
  5935  0100  0878               	movf	?___lwmod,w
  5936  0101  3E30               	addlw	48
  5937  0102  1283               	bcf	3,5	;RP0=0, select bank0
  5938  0103  1303               	bcf	3,6	;RP1=0, select bank0
  5939  0104  00A4               	movwf	??_sprintf+1
  5940  0105  0824               	movf	??_sprintf+1,w
  5941  0106  00AC               	movwf	sprintf@c
  5942  0107                     l1906:	
  5943                           
  5944                           ;C:\Program Files (x86)\Microchip\xc8\v2.10\pic\sources\c90\common\doprnt.c: 1549:    };
      +                          C:\Program Files (x86)\Microchip\xc8\v2.10\pic\sources\c90\common\doprnt.c: 1550:    ((*
      +                          sp++ = (c)));
  5945  0107  082C               	movf	sprintf@c,w
  5946  0108  00A3               	movwf	??_sprintf
  5947  0109  082B               	movf	sprintf@sp,w
  5948  010A  0084               	movwf	4
  5949  010B  0823               	movf	??_sprintf,w
  5950  010C  1383               	bcf	3,7	;select IRP bank0
  5951  010D  0080               	movwf	0
  5952  010E                     l1908:	
  5953  010E  3001               	movlw	1
  5954  010F  00A3               	movwf	??_sprintf
  5955  0110  0823               	movf	??_sprintf,w
  5956  0111  07AB               	addwf	sprintf@sp,f
  5957  0112                     l1910:	
  5958                           
  5959                           ;C:\Program Files (x86)\Microchip\xc8\v2.10\pic\sources\c90\common\doprnt.c: 1500:   whi
      +                          le(prec--) {
  5960  0112  30FF               	movlw	255
  5961  0113  00A3               	movwf	??_sprintf
  5962  0114  0823               	movf	??_sprintf,w
  5963  0115  07A8               	addwf	sprintf@prec,f
  5964  0116  0A28               	incf	sprintf@prec,w
  5965  0117  1D03               	btfss	3,2
  5966  0118  291A               	goto	u2101
  5967  0119  291B               	goto	u2100
  5968  011A                     u2101:	
  5969  011A  28D9               	goto	l1904
  5970  011B                     u2100:	
  5971  011B                     l1912:	
  5972                           
  5973                           ;C:\Program Files (x86)\Microchip\xc8\v2.10\pic\sources\c90\common\doprnt.c: 553:  while
      +                          ((c = *f++)) {
  5974  011B  3001               	movlw	1
  5975  011C  07A0               	addwf	sprintf@f,f
  5976  011D  30FF               	movlw	-1
  5977  011E  0720               	addwf	sprintf@f,w
  5978  011F  0084               	movwf	4
  5979  0120  120A  158A  200A  120A  118A  	fcall	stringdir
  5980  0125  00A3               	movwf	??_sprintf
  5981  0126  0823               	movf	??_sprintf,w
  5982  0127  00AC               	movwf	sprintf@c
  5983  0128  082C               	movf	sprintf@c,w
  5984  0129  1D03               	btfss	3,2
  5985  012A  292C               	goto	u2111
  5986  012B  292D               	goto	u2110
  5987  012C                     u2111:	
  5988  012C  2852               	goto	l1862
  5989  012D                     u2110:	
  5990  012D                     l1914:	
  5991                           
  5992                           ;C:\Program Files (x86)\Microchip\xc8\v2.10\pic\sources\c90\common\doprnt.c: 1564:  *sp 
      +                          = 0;
  5993  012D  082B               	movf	sprintf@sp,w
  5994  012E  0084               	movwf	4
  5995  012F  1383               	bcf	3,7	;select IRP bank0
  5996  0130  0180               	clrf	0
  5997  0131                     l284:	
  5998  0131  0008               	return
  5999  0132                     __end_of_sprintf:	
  6000                           
  6001                           	psect	text15
  6002  0922                     __ptext15:	
  6003 ;; *************** function ___lwmod *****************
  6004 ;; Defined at:
  6005 ;;		line 5 in file "C:\Program Files (x86)\Microchip\xc8\v2.10\pic\sources\c90\common\lwmod.c"
  6006 ;; Parameters:    Size  Location     Type
  6007 ;;  divisor         2    8[COMMON] unsigned int 
  6008 ;;  dividend        2   10[COMMON] unsigned int 
  6009 ;; Auto vars:     Size  Location     Type
  6010 ;;  counter         1   13[COMMON] unsigned char 
  6011 ;; Return value:  Size  Location     Type
  6012 ;;                  2    8[COMMON] unsigned int 
  6013 ;; Registers used:
  6014 ;;		wreg, status,2, status,0
  6015 ;; Tracked objects:
  6016 ;;		On entry : 0/0
  6017 ;;		On exit  : 0/0
  6018 ;;		Unchanged: 0/0
  6019 ;; Data sizes:     COMMON   BANK0   BANK1   BANK3   BANK2
  6020 ;;      Params:         4       0       0       0       0
  6021 ;;      Locals:         1       0       0       0       0
  6022 ;;      Temps:          1       0       0       0       0
  6023 ;;      Totals:         6       0       0       0       0
  6024 ;;Total ram usage:        6 bytes
  6025 ;; Hardware stack levels used:    1
  6026 ;; This function calls:
  6027 ;;		Nothing
  6028 ;; This function is called by:
  6029 ;;		_sprintf
  6030 ;; This function uses a non-reentrant model
  6031 ;;
  6032                           
  6033                           
  6034                           ;psect for function ___lwmod
  6035  0922                     ___lwmod:	
  6036  0922                     l1792:	
  6037                           ;incstack = 0
  6038                           ; Regs used in ___lwmod: [wreg+status,2+status,0]
  6039                           
  6040  0922  0878               	movf	___lwmod@divisor,w
  6041  0923  0479               	iorwf	___lwmod@divisor+1,w
  6042  0924  1903               	btfsc	3,2
  6043  0925  2927               	goto	u1931
  6044  0926  2928               	goto	u1930
  6045  0927                     u1931:	
  6046  0927  2957               	goto	l1810
  6047  0928                     u1930:	
  6048  0928                     l1794:	
  6049  0928  01FD               	clrf	___lwmod@counter
  6050  0929  0AFD               	incf	___lwmod@counter,f
  6051  092A  2936               	goto	l1800
  6052  092B                     l1796:	
  6053  092B  3001               	movlw	1
  6054  092C                     u1945:	
  6055  092C  1003               	clrc
  6056  092D  0DF8               	rlf	___lwmod@divisor,f
  6057  092E  0DF9               	rlf	___lwmod@divisor+1,f
  6058  092F  3EFF               	addlw	-1
  6059  0930  1D03               	skipz
  6060  0931  292C               	goto	u1945
  6061  0932                     l1798:	
  6062  0932  3001               	movlw	1
  6063  0933  00FC               	movwf	??___lwmod
  6064  0934  087C               	movf	??___lwmod,w
  6065  0935  07FD               	addwf	___lwmod@counter,f
  6066  0936                     l1800:	
  6067  0936  1FF9               	btfss	___lwmod@divisor+1,7
  6068  0937  2939               	goto	u1951
  6069  0938  293A               	goto	u1950
  6070  0939                     u1951:	
  6071  0939  292B               	goto	l1796
  6072  093A                     u1950:	
  6073  093A                     l1802:	
  6074  093A  0879               	movf	___lwmod@divisor+1,w
  6075  093B  027B               	subwf	___lwmod@dividend+1,w
  6076  093C  1D03               	skipz
  6077  093D  2940               	goto	u1965
  6078  093E  0878               	movf	___lwmod@divisor,w
  6079  093F  027A               	subwf	___lwmod@dividend,w
  6080  0940                     u1965:	
  6081  0940  1C03               	skipc
  6082  0941  2943               	goto	u1961
  6083  0942  2944               	goto	u1960
  6084  0943                     u1961:	
  6085  0943  294A               	goto	l1806
  6086  0944                     u1960:	
  6087  0944                     l1804:	
  6088  0944  0878               	movf	___lwmod@divisor,w
  6089  0945  02FA               	subwf	___lwmod@dividend,f
  6090  0946  0879               	movf	___lwmod@divisor+1,w
  6091  0947  1C03               	skipc
  6092  0948  03FB               	decf	___lwmod@dividend+1,f
  6093  0949  02FB               	subwf	___lwmod@dividend+1,f
  6094  094A                     l1806:	
  6095  094A  3001               	movlw	1
  6096  094B                     u1975:	
  6097  094B  1003               	clrc
  6098  094C  0CF9               	rrf	___lwmod@divisor+1,f
  6099  094D  0CF8               	rrf	___lwmod@divisor,f
  6100  094E  3EFF               	addlw	-1
  6101  094F  1D03               	skipz
  6102  0950  294B               	goto	u1975
  6103  0951                     l1808:	
  6104  0951  3001               	movlw	1
  6105  0952  02FD               	subwf	___lwmod@counter,f
  6106  0953  1D03               	btfss	3,2
  6107  0954  2956               	goto	u1981
  6108  0955  2957               	goto	u1980
  6109  0956                     u1981:	
  6110  0956  293A               	goto	l1802
  6111  0957                     u1980:	
  6112  0957                     l1810:	
  6113  0957  087B               	movf	___lwmod@dividend+1,w
  6114  0958  00F9               	movwf	?___lwmod+1
  6115  0959  087A               	movf	___lwmod@dividend,w
  6116  095A  00F8               	movwf	?___lwmod
  6117  095B                     l570:	
  6118  095B  0008               	return
  6119  095C                     __end_of___lwmod:	
  6120                           
  6121                           	psect	text16
  6122  0006                     __ptext16:	
  6123 ;; *************** function ___lwdiv *****************
  6124 ;; Defined at:
  6125 ;;		line 5 in file "C:\Program Files (x86)\Microchip\xc8\v2.10\pic\sources\c90\common\lwdiv.c"
  6126 ;; Parameters:    Size  Location     Type
  6127 ;;  divisor         2    0[COMMON] unsigned int 
  6128 ;;  dividend        2    2[COMMON] unsigned int 
  6129 ;; Auto vars:     Size  Location     Type
  6130 ;;  quotient        2    5[COMMON] unsigned int 
  6131 ;;  counter         1    7[COMMON] unsigned char 
  6132 ;; Return value:  Size  Location     Type
  6133 ;;                  2    0[COMMON] unsigned int 
  6134 ;; Registers used:
  6135 ;;		wreg, status,2, status,0
  6136 ;; Tracked objects:
  6137 ;;		On entry : 0/0
  6138 ;;		On exit  : 0/0
  6139 ;;		Unchanged: 0/0
  6140 ;; Data sizes:     COMMON   BANK0   BANK1   BANK3   BANK2
  6141 ;;      Params:         4       0       0       0       0
  6142 ;;      Locals:         3       0       0       0       0
  6143 ;;      Temps:          1       0       0       0       0
  6144 ;;      Totals:         8       0       0       0       0
  6145 ;;Total ram usage:        8 bytes
  6146 ;; Hardware stack levels used:    1
  6147 ;; This function calls:
  6148 ;;		Nothing
  6149 ;; This function is called by:
  6150 ;;		_sprintf
  6151 ;; This function uses a non-reentrant model
  6152 ;;
  6153                           
  6154                           
  6155                           ;psect for function ___lwdiv
  6156  0006                     ___lwdiv:	
  6157  0006                     l1766:	
  6158                           ;incstack = 0
  6159                           ; Regs used in ___lwdiv: [wreg+status,2+status,0]
  6160                           
  6161  0006  01F5               	clrf	___lwdiv@quotient
  6162  0007  01F6               	clrf	___lwdiv@quotient+1
  6163  0008                     l1768:	
  6164  0008  0870               	movf	___lwdiv@divisor,w
  6165  0009  0471               	iorwf	___lwdiv@divisor+1,w
  6166  000A  1903               	btfsc	3,2
  6167  000B  280D               	goto	u1861
  6168  000C  280E               	goto	u1860
  6169  000D                     u1861:	
  6170  000D  2845               	goto	l1788
  6171  000E                     u1860:	
  6172  000E                     l1770:	
  6173  000E  01F7               	clrf	___lwdiv@counter
  6174  000F  0AF7               	incf	___lwdiv@counter,f
  6175  0010  281C               	goto	l1776
  6176  0011                     l1772:	
  6177  0011  3001               	movlw	1
  6178  0012                     u1875:	
  6179  0012  1003               	clrc
  6180  0013  0DF0               	rlf	___lwdiv@divisor,f
  6181  0014  0DF1               	rlf	___lwdiv@divisor+1,f
  6182  0015  3EFF               	addlw	-1
  6183  0016  1D03               	skipz
  6184  0017  2812               	goto	u1875
  6185  0018                     l1774:	
  6186  0018  3001               	movlw	1
  6187  0019  00F4               	movwf	??___lwdiv
  6188  001A  0874               	movf	??___lwdiv,w
  6189  001B  07F7               	addwf	___lwdiv@counter,f
  6190  001C                     l1776:	
  6191  001C  1FF1               	btfss	___lwdiv@divisor+1,7
  6192  001D  281F               	goto	u1881
  6193  001E  2820               	goto	u1880
  6194  001F                     u1881:	
  6195  001F  2811               	goto	l1772
  6196  0020                     u1880:	
  6197  0020                     l1778:	
  6198  0020  3001               	movlw	1
  6199  0021                     u1895:	
  6200  0021  1003               	clrc
  6201  0022  0DF5               	rlf	___lwdiv@quotient,f
  6202  0023  0DF6               	rlf	___lwdiv@quotient+1,f
  6203  0024  3EFF               	addlw	-1
  6204  0025  1D03               	skipz
  6205  0026  2821               	goto	u1895
  6206  0027  0871               	movf	___lwdiv@divisor+1,w
  6207  0028  0273               	subwf	___lwdiv@dividend+1,w
  6208  0029  1D03               	skipz
  6209  002A  282D               	goto	u1905
  6210  002B  0870               	movf	___lwdiv@divisor,w
  6211  002C  0272               	subwf	___lwdiv@dividend,w
  6212  002D                     u1905:	
  6213  002D  1C03               	skipc
  6214  002E  2830               	goto	u1901
  6215  002F  2831               	goto	u1900
  6216  0030                     u1901:	
  6217  0030  2838               	goto	l1784
  6218  0031                     u1900:	
  6219  0031                     l1780:	
  6220  0031  0870               	movf	___lwdiv@divisor,w
  6221  0032  02F2               	subwf	___lwdiv@dividend,f
  6222  0033  0871               	movf	___lwdiv@divisor+1,w
  6223  0034  1C03               	skipc
  6224  0035  03F3               	decf	___lwdiv@dividend+1,f
  6225  0036  02F3               	subwf	___lwdiv@dividend+1,f
  6226  0037                     l1782:	
  6227  0037  1475               	bsf	___lwdiv@quotient,0
  6228  0038                     l1784:	
  6229  0038  3001               	movlw	1
  6230  0039                     u1915:	
  6231  0039  1003               	clrc
  6232  003A  0CF1               	rrf	___lwdiv@divisor+1,f
  6233  003B  0CF0               	rrf	___lwdiv@divisor,f
  6234  003C  3EFF               	addlw	-1
  6235  003D  1D03               	skipz
  6236  003E  2839               	goto	u1915
  6237  003F                     l1786:	
  6238  003F  3001               	movlw	1
  6239  0040  02F7               	subwf	___lwdiv@counter,f
  6240  0041  1D03               	btfss	3,2
  6241  0042  2844               	goto	u1921
  6242  0043  2845               	goto	u1920
  6243  0044                     u1921:	
  6244  0044  2820               	goto	l1778
  6245  0045                     u1920:	
  6246  0045                     l1788:	
  6247  0045  0876               	movf	___lwdiv@quotient+1,w
  6248  0046  00F1               	movwf	?___lwdiv+1
  6249  0047  0875               	movf	___lwdiv@quotient,w
  6250  0048  00F0               	movwf	?___lwdiv
  6251  0049                     l560:	
  6252  0049  0008               	return
  6253  004A                     __end_of___lwdiv:	
  6254                           
  6255                           	psect	text17
  6256  095C                     __ptext17:	
  6257 ;; *************** function _Lcd_Write_String *****************
  6258 ;; Defined at:
  6259 ;;		line 60 in file "LCD.c"
  6260 ;; Parameters:    Size  Location     Type
  6261 ;;  var             2    3[COMMON] PTR unsigned char 
  6262 ;;		 -> Lcd_Write_Int@buffer(4), STR_4(2), STR_3(3), STR_2(3), 
  6263 ;;		 -> STR_1(3), 
  6264 ;; Auto vars:     Size  Location     Type
  6265 ;;  i               2    8[COMMON] int 
  6266 ;; Return value:  Size  Location     Type
  6267 ;;                  1    wreg      void 
  6268 ;; Registers used:
  6269 ;;		wreg, fsr0l, fsr0h, status,2, status,0, btemp+1, pclath, cstack
  6270 ;; Tracked objects:
  6271 ;;		On entry : 0/0
  6272 ;;		On exit  : 0/0
  6273 ;;		Unchanged: 0/0
  6274 ;; Data sizes:     COMMON   BANK0   BANK1   BANK3   BANK2
  6275 ;;      Params:         2       0       0       0       0
  6276 ;;      Locals:         2       0       0       0       0
  6277 ;;      Temps:          3       0       0       0       0
  6278 ;;      Totals:         7       0       0       0       0
  6279 ;;Total ram usage:        7 bytes
  6280 ;; Hardware stack levels used:    1
  6281 ;; Hardware stack levels required when called:    1
  6282 ;; This function calls:
  6283 ;;		_Lcd_Write_Char
  6284 ;; This function is called by:
  6285 ;;		_main
  6286 ;;		_Lcd_Write_Int
  6287 ;; This function uses a non-reentrant model
  6288 ;;
  6289                           
  6290                           
  6291                           ;psect for function _Lcd_Write_String
  6292  095C                     _Lcd_Write_String:	
  6293  095C                     l1814:	
  6294                           ;incstack = 0
  6295                           ; Regs used in _Lcd_Write_String: [wreg-fsr0h+status,2+status,0+btemp+1+pclath+cstack]
  6296                           
  6297                           
  6298                           ;LCD.c: 61:     int i;;LCD.c: 62:  for(i=0;var[i]!='\0';i++)
  6299  095C  01F8               	clrf	Lcd_Write_String@i
  6300  095D  01F9               	clrf	Lcd_Write_String@i+1
  6301  095E  2981               	goto	l1820
  6302  095F                     l1816:	
  6303                           
  6304                           ;LCD.c: 63:     Lcd_Write_Char(var[i]);
  6305  095F  0878               	movf	Lcd_Write_String@i,w
  6306  0960  0773               	addwf	Lcd_Write_String@var,w
  6307  0961  00F6               	movwf	??_Lcd_Write_String+1
  6308  0962  0874               	movf	Lcd_Write_String@var+1,w
  6309  0963  00F5               	movwf	??_Lcd_Write_String
  6310  0964  1803               	skipnc
  6311  0965  0AF5               	incf	??_Lcd_Write_String,f
  6312  0966  1FF8               	btfss	Lcd_Write_String@i,7
  6313  0967  2969               	goto	u1990
  6314  0968  03F5               	decf	??_Lcd_Write_String,f
  6315  0969                     u1990:	
  6316  0969  0875               	movf	??_Lcd_Write_String,w
  6317  096A  00F7               	movwf	??_Lcd_Write_String+2
  6318  096B  0877               	movf	??_Lcd_Write_String+2,w
  6319  096C  1283               	bcf	3,5	;RP0=0, select bank0
  6320  096D  1303               	bcf	3,6	;RP1=0, select bank0
  6321  096E  00FF               	movwf	btemp+1
  6322  096F  0876               	movf	??_Lcd_Write_String+1,w
  6323  0970  0084               	movwf	4
  6324  0971  120A  158A  2000  120A  158A  	fcall	stringtab
  6325  0976  160A  118A  27D1  120A  158A  	fcall	_Lcd_Write_Char
  6326  097B                     l1818:	
  6327  097B  3001               	movlw	1
  6328  097C  07F8               	addwf	Lcd_Write_String@i,f
  6329  097D  1803               	skipnc
  6330  097E  0AF9               	incf	Lcd_Write_String@i+1,f
  6331  097F  3000               	movlw	0
  6332  0980  07F9               	addwf	Lcd_Write_String@i+1,f
  6333  0981                     l1820:	
  6334  0981  0878               	movf	Lcd_Write_String@i,w
  6335  0982  0773               	addwf	Lcd_Write_String@var,w
  6336  0983  00F6               	movwf	??_Lcd_Write_String+1
  6337  0984  0874               	movf	Lcd_Write_String@var+1,w
  6338  0985  00F5               	movwf	??_Lcd_Write_String
  6339  0986  1803               	skipnc
  6340  0987  0AF5               	incf	??_Lcd_Write_String,f
  6341  0988  1FF8               	btfss	Lcd_Write_String@i,7
  6342  0989  298B               	goto	u2000
  6343  098A  03F5               	decf	??_Lcd_Write_String,f
  6344  098B                     u2000:	
  6345  098B  0875               	movf	??_Lcd_Write_String,w
  6346  098C  00F7               	movwf	??_Lcd_Write_String+2
  6347  098D  0877               	movf	??_Lcd_Write_String+2,w
  6348  098E  1283               	bcf	3,5	;RP0=0, select bank0
  6349  098F  1303               	bcf	3,6	;RP1=0, select bank0
  6350  0990  00FF               	movwf	btemp+1
  6351  0991  0876               	movf	??_Lcd_Write_String+1,w
  6352  0992  0084               	movwf	4
  6353  0993  120A  158A  2000  120A  158A  	fcall	stringtab
  6354  0998  3A00               	xorlw	0
  6355  0999  1D03               	skipz
  6356  099A  299C               	goto	u2011
  6357  099B  299D               	goto	u2010
  6358  099C                     u2011:	
  6359  099C  295F               	goto	l1816
  6360  099D                     u2010:	
  6361  099D                     l171:	
  6362  099D  0008               	return
  6363  099E                     __end_of_Lcd_Write_String:	
  6364                           
  6365                           	psect	text18
  6366  17D1                     __ptext18:	
  6367 ;; *************** function _Lcd_Write_Char *****************
  6368 ;; Defined at:
  6369 ;;		line 52 in file "LCD.c"
  6370 ;; Parameters:    Size  Location     Type
  6371 ;;  var             1    wreg     unsigned char 
  6372 ;; Auto vars:     Size  Location     Type
  6373 ;;  var             1    2[COMMON] unsigned char 
  6374 ;; Return value:  Size  Location     Type
  6375 ;;                  1    wreg      void 
  6376 ;; Registers used:
  6377 ;;		wreg
  6378 ;; Tracked objects:
  6379 ;;		On entry : 0/0
  6380 ;;		On exit  : 0/0
  6381 ;;		Unchanged: 0/0
  6382 ;; Data sizes:     COMMON   BANK0   BANK1   BANK3   BANK2
  6383 ;;      Params:         0       0       0       0       0
  6384 ;;      Locals:         1       0       0       0       0
  6385 ;;      Temps:          2       0       0       0       0
  6386 ;;      Totals:         3       0       0       0       0
  6387 ;;Total ram usage:        3 bytes
  6388 ;; Hardware stack levels used:    1
  6389 ;; This function calls:
  6390 ;;		Nothing
  6391 ;; This function is called by:
  6392 ;;		_main
  6393 ;;		_Lcd_Write_String
  6394 ;; This function uses a non-reentrant model
  6395 ;;
  6396                           
  6397                           
  6398                           ;psect for function _Lcd_Write_Char
  6399  17D1                     _Lcd_Write_Char:	
  6400                           
  6401                           ;incstack = 0
  6402                           ; Regs used in _Lcd_Write_Char: [wreg]
  6403                           ;Lcd_Write_Char@var stored from wreg
  6404  17D1  00F2               	movwf	Lcd_Write_Char@var
  6405  17D2                     l1726:	
  6406                           
  6407                           ;LCD.c: 53:     PORTBbits.RB6 = 1;
  6408  17D2  1283               	bcf	3,5	;RP0=0, select bank0
  6409  17D3  1303               	bcf	3,6	;RP1=0, select bank0
  6410  17D4  1706               	bsf	6,6	;volatile
  6411  17D5                     l1728:	
  6412                           
  6413                           ;LCD.c: 54:     PORTA = var;
  6414  17D5  0872               	movf	Lcd_Write_Char@var,w
  6415  17D6  0085               	movwf	5	;volatile
  6416  17D7                     l1730:	
  6417                           
  6418                           ;LCD.c: 55:     PORTBbits.RB7 = 1;
  6419  17D7  1786               	bsf	6,7	;volatile
  6420                           
  6421                           ;LCD.c: 56:     _delay((unsigned long)((4)*(4000000/4000.0)));
  6422  17D8  3006               	movlw	6
  6423  17D9  00F1               	movwf	??_Lcd_Write_Char+1
  6424  17DA  3030               	movlw	48
  6425  17DB  00F0               	movwf	??_Lcd_Write_Char
  6426  17DC                     u3647:	
  6427  17DC  0BF0               	decfsz	??_Lcd_Write_Char,f
  6428  17DD  2FDC               	goto	u3647
  6429  17DE  0BF1               	decfsz	??_Lcd_Write_Char+1,f
  6430  17DF  2FDC               	goto	u3647
  6431  17E0  0000               	nop
  6432  17E1                     l1732:	
  6433                           
  6434                           ;LCD.c: 57:     PORTBbits.RB7 = 0;
  6435  17E1  1283               	bcf	3,5	;RP0=0, select bank0
  6436  17E2  1303               	bcf	3,6	;RP1=0, select bank0
  6437  17E3  1386               	bcf	6,7	;volatile
  6438  17E4                     l165:	
  6439  17E4  0008               	return
  6440  17E5                     __end_of_Lcd_Write_Char:	
  6441                           
  6442                           	psect	text19
  6443  17E5                     __ptext19:	
  6444 ;; *************** function _Lcd_Set_Cursor *****************
  6445 ;; Defined at:
  6446 ;;		line 43 in file "LCD.c"
  6447 ;; Parameters:    Size  Location     Type
  6448 ;;  posx            1    wreg     unsigned char 
  6449 ;;  posy            1    3[COMMON] unsigned char 
  6450 ;; Auto vars:     Size  Location     Type
  6451 ;;  posx            1    4[COMMON] unsigned char 
  6452 ;; Return value:  Size  Location     Type
  6453 ;;                  1    wreg      void 
  6454 ;; Registers used:
  6455 ;;		wreg, status,2, status,0, pclath, cstack
  6456 ;; Tracked objects:
  6457 ;;		On entry : 0/0
  6458 ;;		On exit  : 0/0
  6459 ;;		Unchanged: 0/0
  6460 ;; Data sizes:     COMMON   BANK0   BANK1   BANK3   BANK2
  6461 ;;      Params:         1       0       0       0       0
  6462 ;;      Locals:         1       0       0       0       0
  6463 ;;      Temps:          0       0       0       0       0
  6464 ;;      Totals:         2       0       0       0       0
  6465 ;;Total ram usage:        2 bytes
  6466 ;; Hardware stack levels used:    1
  6467 ;; Hardware stack levels required when called:    1
  6468 ;; This function calls:
  6469 ;;		_Lcd_Cmd
  6470 ;; This function is called by:
  6471 ;;		_main
  6472 ;; This function uses a non-reentrant model
  6473 ;;
  6474                           
  6475                           
  6476                           ;psect for function _Lcd_Set_Cursor
  6477  17E5                     _Lcd_Set_Cursor:	
  6478                           
  6479                           ;incstack = 0
  6480                           ; Regs used in _Lcd_Set_Cursor: [wreg+status,2+status,0+pclath+cstack]
  6481                           ;Lcd_Set_Cursor@posx stored from wreg
  6482  17E5  00F4               	movwf	Lcd_Set_Cursor@posx
  6483  17E6                     l2138:	
  6484                           
  6485                           ;LCD.c: 44:     if(posy == 1){
  6486  17E6  0373               	decf	Lcd_Set_Cursor@posy,w
  6487  17E7  1D03               	btfss	3,2
  6488  17E8  2FEA               	goto	u2611
  6489  17E9  2FEB               	goto	u2610
  6490  17EA                     u2611:	
  6491  17EA  2FF2               	goto	l2142
  6492  17EB                     u2610:	
  6493  17EB                     l2140:	
  6494                           
  6495                           ;LCD.c: 45:         Lcd_Cmd (0x80 + posx - 1);
  6496  17EB  0874               	movf	Lcd_Set_Cursor@posx,w
  6497  17EC  3E7F               	addlw	127
  6498  17ED  160A  118A  27BD  160A  118A  	fcall	_Lcd_Cmd
  6499  17F2                     l2142:	
  6500                           
  6501                           ;LCD.c: 47:     if(posy == 2){
  6502  17F2  3002               	movlw	2
  6503  17F3  0673               	xorwf	Lcd_Set_Cursor@posy,w
  6504  17F4  1D03               	btfss	3,2
  6505  17F5  2FF7               	goto	u2621
  6506  17F6  2FF8               	goto	u2620
  6507  17F7                     u2621:	
  6508  17F7  2FFF               	goto	l162
  6509  17F8                     u2620:	
  6510  17F8                     l2144:	
  6511                           
  6512                           ;LCD.c: 48:         Lcd_Cmd (0xC0 + posx - 1);
  6513  17F8  0874               	movf	Lcd_Set_Cursor@posx,w
  6514  17F9  3EBF               	addlw	191
  6515  17FA  160A  118A  27BD  160A  118A  	fcall	_Lcd_Cmd
  6516  17FF                     l162:	
  6517  17FF  0008               	return
  6518  1800                     __end_of_Lcd_Set_Cursor:	
  6519                           
  6520                           	psect	text20
  6521  17BD                     __ptext20:	
  6522 ;; *************** function _Lcd_Cmd *****************
  6523 ;; Defined at:
  6524 ;;		line 31 in file "LCD.c"
  6525 ;; Parameters:    Size  Location     Type
  6526 ;;  command         1    wreg     unsigned char 
  6527 ;; Auto vars:     Size  Location     Type
  6528 ;;  command         1    2[COMMON] unsigned char 
  6529 ;; Return value:  Size  Location     Type
  6530 ;;                  1    wreg      void 
  6531 ;; Registers used:
  6532 ;;		wreg
  6533 ;; Tracked objects:
  6534 ;;		On entry : 0/0
  6535 ;;		On exit  : 0/0
  6536 ;;		Unchanged: 0/0
  6537 ;; Data sizes:     COMMON   BANK0   BANK1   BANK3   BANK2
  6538 ;;      Params:         0       0       0       0       0
  6539 ;;      Locals:         1       0       0       0       0
  6540 ;;      Temps:          2       0       0       0       0
  6541 ;;      Totals:         3       0       0       0       0
  6542 ;;Total ram usage:        3 bytes
  6543 ;; Hardware stack levels used:    1
  6544 ;; This function calls:
  6545 ;;		Nothing
  6546 ;; This function is called by:
  6547 ;;		_initLCD
  6548 ;;		_Lcd_Clear
  6549 ;;		_Lcd_Set_Cursor
  6550 ;; This function uses a non-reentrant model
  6551 ;;
  6552                           
  6553                           
  6554                           ;psect for function _Lcd_Cmd
  6555  17BD                     _Lcd_Cmd:	
  6556                           
  6557                           ;incstack = 0
  6558                           ; Regs used in _Lcd_Cmd: [wreg]
  6559                           ;Lcd_Cmd@command stored from wreg
  6560  17BD  00F2               	movwf	Lcd_Cmd@command
  6561  17BE                     l1734:	
  6562                           
  6563                           ;LCD.c: 32:     PORTBbits.RB6 = 0;
  6564  17BE  1283               	bcf	3,5	;RP0=0, select bank0
  6565  17BF  1303               	bcf	3,6	;RP1=0, select bank0
  6566  17C0  1306               	bcf	6,6	;volatile
  6567  17C1                     l1736:	
  6568                           
  6569                           ;LCD.c: 33:     PORTA = command;
  6570  17C1  0872               	movf	Lcd_Cmd@command,w
  6571  17C2  0085               	movwf	5	;volatile
  6572  17C3                     l1738:	
  6573                           
  6574                           ;LCD.c: 34:     PORTBbits.RB7 = 1;
  6575  17C3  1786               	bsf	6,7	;volatile
  6576                           
  6577                           ;LCD.c: 35:     _delay((unsigned long)((4)*(4000000/4000.0)));
  6578  17C4  3006               	movlw	6
  6579  17C5  00F1               	movwf	??_Lcd_Cmd+1
  6580  17C6  3030               	movlw	48
  6581  17C7  00F0               	movwf	??_Lcd_Cmd
  6582  17C8                     u3657:	
  6583  17C8  0BF0               	decfsz	??_Lcd_Cmd,f
  6584  17C9  2FC8               	goto	u3657
  6585  17CA  0BF1               	decfsz	??_Lcd_Cmd+1,f
  6586  17CB  2FC8               	goto	u3657
  6587  17CC  0000               	nop
  6588  17CD                     l1740:	
  6589                           
  6590                           ;LCD.c: 36:     PORTBbits.RB7 = 0;
  6591  17CD  1283               	bcf	3,5	;RP0=0, select bank0
  6592  17CE  1303               	bcf	3,6	;RP1=0, select bank0
  6593  17CF  1386               	bcf	6,7	;volatile
  6594  17D0                     l154:	
  6595  17D0  0008               	return
  6596  17D1                     __end_of_Lcd_Cmd:	
  6597                           
  6598                           	psect	text21
  6599  17A6                     __ptext21:	
  6600 ;; *************** function _I2C_Master_Write *****************
  6601 ;; Defined at:
  6602 ;;		line 65 in file "I2C.c"
  6603 ;; Parameters:    Size  Location     Type
  6604 ;;  d               2    0[COMMON] unsigned int 
  6605 ;; Auto vars:     Size  Location     Type
  6606 ;;		None
  6607 ;; Return value:  Size  Location     Type
  6608 ;;                  1    wreg      void 
  6609 ;; Registers used:
  6610 ;;		wreg, status,2, status,0, pclath, cstack
  6611 ;; Tracked objects:
  6612 ;;		On entry : 0/0
  6613 ;;		On exit  : 0/0
  6614 ;;		Unchanged: 0/0
  6615 ;; Data sizes:     COMMON   BANK0   BANK1   BANK3   BANK2
  6616 ;;      Params:         2       0       0       0       0
  6617 ;;      Locals:         0       0       0       0       0
  6618 ;;      Temps:          0       0       0       0       0
  6619 ;;      Totals:         2       0       0       0       0
  6620 ;;Total ram usage:        2 bytes
  6621 ;; Hardware stack levels used:    1
  6622 ;; Hardware stack levels required when called:    1
  6623 ;; This function calls:
  6624 ;;		_I2C_Master_Wait
  6625 ;; This function is called by:
  6626 ;;		_main
  6627 ;; This function uses a non-reentrant model
  6628 ;;
  6629                           
  6630                           
  6631                           ;psect for function _I2C_Master_Write
  6632  17A6                     _I2C_Master_Write:	
  6633  17A6                     l2150:	
  6634                           ;incstack = 0
  6635                           ; Regs used in _I2C_Master_Write: [wreg+status,2+status,0+pclath+cstack]
  6636                           
  6637                           
  6638                           ;I2C.c: 65: void I2C_Master_Write(unsigned d);I2C.c: 66: {;I2C.c: 67:     I2C_Master_Wai
      +                          t();
  6639  17A6  160A  118A  27B0  160A  118A  	fcall	_I2C_Master_Wait
  6640  17AB                     l2152:	
  6641                           
  6642                           ;I2C.c: 68:     SSPBUF = d;
  6643  17AB  0870               	movf	I2C_Master_Write@d,w
  6644  17AC  1283               	bcf	3,5	;RP0=0, select bank0
  6645  17AD  1303               	bcf	3,6	;RP1=0, select bank0
  6646  17AE  0093               	movwf	19	;volatile
  6647  17AF                     l130:	
  6648  17AF  0008               	return
  6649  17B0                     __end_of_I2C_Master_Write:	
  6650                           
  6651                           	psect	text22
  6652  179D                     __ptext22:	
  6653 ;; *************** function _I2C_Master_Stop *****************
  6654 ;; Defined at:
  6655 ;;		line 55 in file "I2C.c"
  6656 ;; Parameters:    Size  Location     Type
  6657 ;;		None
  6658 ;; Auto vars:     Size  Location     Type
  6659 ;;		None
  6660 ;; Return value:  Size  Location     Type
  6661 ;;                  1    wreg      void 
  6662 ;; Registers used:
  6663 ;;		wreg, status,2, status,0, pclath, cstack
  6664 ;; Tracked objects:
  6665 ;;		On entry : 0/0
  6666 ;;		On exit  : 0/0
  6667 ;;		Unchanged: 0/0
  6668 ;; Data sizes:     COMMON   BANK0   BANK1   BANK3   BANK2
  6669 ;;      Params:         0       0       0       0       0
  6670 ;;      Locals:         0       0       0       0       0
  6671 ;;      Temps:          0       0       0       0       0
  6672 ;;      Totals:         0       0       0       0       0
  6673 ;;Total ram usage:        0 bytes
  6674 ;; Hardware stack levels used:    1
  6675 ;; Hardware stack levels required when called:    1
  6676 ;; This function calls:
  6677 ;;		_I2C_Master_Wait
  6678 ;; This function is called by:
  6679 ;;		_main
  6680 ;; This function uses a non-reentrant model
  6681 ;;
  6682                           
  6683                           
  6684                           ;psect for function _I2C_Master_Stop
  6685  179D                     _I2C_Master_Stop:	
  6686  179D                     l2170:	
  6687                           ;incstack = 0
  6688                           ; Regs used in _I2C_Master_Stop: [wreg+status,2+status,0+pclath+cstack]
  6689                           
  6690                           
  6691                           ;I2C.c: 57:     I2C_Master_Wait();
  6692  179D  160A  118A  27B0  160A  118A  	fcall	_I2C_Master_Wait
  6693  17A2                     l2172:	
  6694                           
  6695                           ;I2C.c: 58:     SSPCON2bits.PEN = 1;
  6696  17A2  1683               	bsf	3,5	;RP0=1, select bank1
  6697  17A3  1303               	bcf	3,6	;RP1=0, select bank1
  6698  17A4  1511               	bsf	17,2	;volatile
  6699  17A5                     l127:	
  6700  17A5  0008               	return
  6701  17A6                     __end_of_I2C_Master_Stop:	
  6702                           
  6703                           	psect	text23
  6704  1794                     __ptext23:	
  6705 ;; *************** function _I2C_Master_Start *****************
  6706 ;; Defined at:
  6707 ;;		line 39 in file "I2C.c"
  6708 ;; Parameters:    Size  Location     Type
  6709 ;;		None
  6710 ;; Auto vars:     Size  Location     Type
  6711 ;;		None
  6712 ;; Return value:  Size  Location     Type
  6713 ;;                  1    wreg      void 
  6714 ;; Registers used:
  6715 ;;		wreg, status,2, status,0, pclath, cstack
  6716 ;; Tracked objects:
  6717 ;;		On entry : 0/0
  6718 ;;		On exit  : 0/0
  6719 ;;		Unchanged: 0/0
  6720 ;; Data sizes:     COMMON   BANK0   BANK1   BANK3   BANK2
  6721 ;;      Params:         0       0       0       0       0
  6722 ;;      Locals:         0       0       0       0       0
  6723 ;;      Temps:          0       0       0       0       0
  6724 ;;      Totals:         0       0       0       0       0
  6725 ;;Total ram usage:        0 bytes
  6726 ;; Hardware stack levels used:    1
  6727 ;; Hardware stack levels required when called:    1
  6728 ;; This function calls:
  6729 ;;		_I2C_Master_Wait
  6730 ;; This function is called by:
  6731 ;;		_main
  6732 ;; This function uses a non-reentrant model
  6733 ;;
  6734                           
  6735                           
  6736                           ;psect for function _I2C_Master_Start
  6737  1794                     _I2C_Master_Start:	
  6738  1794                     l2146:	
  6739                           ;incstack = 0
  6740                           ; Regs used in _I2C_Master_Start: [wreg+status,2+status,0+pclath+cstack]
  6741                           
  6742                           
  6743                           ;I2C.c: 41:     I2C_Master_Wait();
  6744  1794  160A  118A  27B0  160A  118A  	fcall	_I2C_Master_Wait
  6745  1799                     l2148:	
  6746                           
  6747                           ;I2C.c: 42:     SSPCON2bits.SEN = 1;
  6748  1799  1683               	bsf	3,5	;RP0=1, select bank1
  6749  179A  1303               	bcf	3,6	;RP1=0, select bank1
  6750  179B  1411               	bsf	17,0	;volatile
  6751  179C                     l121:	
  6752  179C  0008               	return
  6753  179D                     __end_of_I2C_Master_Start:	
  6754                           
  6755                           	psect	text24
  6756  08BC                     __ptext24:	
  6757 ;; *************** function _I2C_Master_Read *****************
  6758 ;; Defined at:
  6759 ;;		line 74 in file "I2C.c"
  6760 ;; Parameters:    Size  Location     Type
  6761 ;;  a               2    0[COMMON] unsigned short 
  6762 ;; Auto vars:     Size  Location     Type
  6763 ;;  temp            2    4[COMMON] unsigned short 
  6764 ;; Return value:  Size  Location     Type
  6765 ;;                  2    0[COMMON] unsigned short 
  6766 ;; Registers used:
  6767 ;;		wreg, status,2, status,0, pclath, cstack
  6768 ;; Tracked objects:
  6769 ;;		On entry : 0/0
  6770 ;;		On exit  : 0/0
  6771 ;;		Unchanged: 0/0
  6772 ;; Data sizes:     COMMON   BANK0   BANK1   BANK3   BANK2
  6773 ;;      Params:         2       0       0       0       0
  6774 ;;      Locals:         2       0       0       0       0
  6775 ;;      Temps:          2       0       0       0       0
  6776 ;;      Totals:         6       0       0       0       0
  6777 ;;Total ram usage:        6 bytes
  6778 ;; Hardware stack levels used:    1
  6779 ;; Hardware stack levels required when called:    1
  6780 ;; This function calls:
  6781 ;;		_I2C_Master_Wait
  6782 ;; This function is called by:
  6783 ;;		_main
  6784 ;; This function uses a non-reentrant model
  6785 ;;
  6786                           
  6787                           
  6788                           ;psect for function _I2C_Master_Read
  6789  08BC                     _I2C_Master_Read:	
  6790  08BC                     l2154:	
  6791                           ;incstack = 0
  6792                           ; Regs used in _I2C_Master_Read: [wreg+status,2+status,0+pclath+cstack]
  6793                           
  6794                           
  6795                           ;I2C.c: 74: unsigned short I2C_Master_Read(unsigned short a);I2C.c: 75: {;I2C.c: 76:    
      +                           unsigned short temp;;I2C.c: 77:     I2C_Master_Wait();
  6796  08BC  160A  118A  27B0  120A  158A  	fcall	_I2C_Master_Wait
  6797  08C1                     l2156:	
  6798                           
  6799                           ;I2C.c: 78:     SSPCON2bits.RCEN = 1;
  6800  08C1  1683               	bsf	3,5	;RP0=1, select bank1
  6801  08C2  1303               	bcf	3,6	;RP1=0, select bank1
  6802  08C3  1591               	bsf	17,3	;volatile
  6803                           
  6804                           ;I2C.c: 79:     I2C_Master_Wait();
  6805  08C4  160A  118A  27B0  120A  158A  	fcall	_I2C_Master_Wait
  6806  08C9                     l2158:	
  6807                           
  6808                           ;I2C.c: 80:     temp = SSPBUF;
  6809  08C9  1283               	bcf	3,5	;RP0=0, select bank0
  6810  08CA  1303               	bcf	3,6	;RP1=0, select bank0
  6811  08CB  0813               	movf	19,w	;volatile
  6812  08CC  00F2               	movwf	??_I2C_Master_Read
  6813  08CD  01F3               	clrf	??_I2C_Master_Read+1
  6814  08CE  0872               	movf	??_I2C_Master_Read,w
  6815  08CF  00F4               	movwf	I2C_Master_Read@temp
  6816  08D0  0873               	movf	??_I2C_Master_Read+1,w
  6817  08D1  00F5               	movwf	I2C_Master_Read@temp+1
  6818  08D2                     l2160:	
  6819                           
  6820                           ;I2C.c: 81:     I2C_Master_Wait();
  6821  08D2  160A  118A  27B0  120A  158A  	fcall	_I2C_Master_Wait
  6822  08D7                     l2162:	
  6823                           
  6824                           ;I2C.c: 82:     if(a == 1){
  6825  08D7  0370               	decf	I2C_Master_Read@a,w
  6826  08D8  0471               	iorwf	I2C_Master_Read@a+1,w
  6827  08D9  1D03               	btfss	3,2
  6828  08DA  28DC               	goto	u2631
  6829  08DB  28DD               	goto	u2630
  6830  08DC                     u2631:	
  6831  08DC  28E1               	goto	l133
  6832  08DD                     u2630:	
  6833  08DD                     l2164:	
  6834                           
  6835                           ;I2C.c: 83:         SSPCON2bits.ACKDT = 0;
  6836  08DD  1683               	bsf	3,5	;RP0=1, select bank1
  6837  08DE  1303               	bcf	3,6	;RP1=0, select bank1
  6838  08DF  1291               	bcf	17,5	;volatile
  6839                           
  6840                           ;I2C.c: 84:     }else{
  6841  08E0  28E4               	goto	l134
  6842  08E1                     l133:	
  6843                           
  6844                           ;I2C.c: 85:         SSPCON2bits.ACKDT = 1;
  6845  08E1  1683               	bsf	3,5	;RP0=1, select bank1
  6846  08E2  1303               	bcf	3,6	;RP1=0, select bank1
  6847  08E3  1691               	bsf	17,5	;volatile
  6848  08E4                     l134:	
  6849                           ;I2C.c: 86:     }
  6850                           
  6851                           
  6852                           ;I2C.c: 87:     SSPCON2bits.ACKEN = 1;
  6853  08E4  1611               	bsf	17,4	;volatile
  6854  08E5                     l2166:	
  6855                           
  6856                           ;I2C.c: 88:     return temp;
  6857  08E5  0875               	movf	I2C_Master_Read@temp+1,w
  6858  08E6  00F1               	movwf	?_I2C_Master_Read+1
  6859  08E7  0874               	movf	I2C_Master_Read@temp,w
  6860  08E8  00F0               	movwf	?_I2C_Master_Read
  6861  08E9                     l135:	
  6862  08E9  0008               	return
  6863  08EA                     __end_of_I2C_Master_Read:	
  6864                           
  6865                           	psect	text25
  6866  17B0                     __ptext25:	
  6867 ;; *************** function _I2C_Master_Wait *****************
  6868 ;; Defined at:
  6869 ;;		line 32 in file "I2C.c"
  6870 ;; Parameters:    Size  Location     Type
  6871 ;;		None
  6872 ;; Auto vars:     Size  Location     Type
  6873 ;;		None
  6874 ;; Return value:  Size  Location     Type
  6875 ;;                  1    wreg      void 
  6876 ;; Registers used:
  6877 ;;		wreg, status,2
  6878 ;; Tracked objects:
  6879 ;;		On entry : 0/0
  6880 ;;		On exit  : 0/0
  6881 ;;		Unchanged: 0/0
  6882 ;; Data sizes:     COMMON   BANK0   BANK1   BANK3   BANK2
  6883 ;;      Params:         0       0       0       0       0
  6884 ;;      Locals:         0       0       0       0       0
  6885 ;;      Temps:          0       0       0       0       0
  6886 ;;      Totals:         0       0       0       0       0
  6887 ;;Total ram usage:        0 bytes
  6888 ;; Hardware stack levels used:    1
  6889 ;; This function calls:
  6890 ;;		Nothing
  6891 ;; This function is called by:
  6892 ;;		_I2C_Master_Start
  6893 ;;		_I2C_Master_Stop
  6894 ;;		_I2C_Master_Write
  6895 ;;		_I2C_Master_Read
  6896 ;;		_I2C_Master_RepeatedStart
  6897 ;; This function uses a non-reentrant model
  6898 ;;
  6899                           
  6900                           
  6901                           ;psect for function _I2C_Master_Wait
  6902  17B0                     _I2C_Master_Wait:	
  6903  17B0                     l1856:	
  6904                           ;incstack = 0
  6905                           ; Regs used in _I2C_Master_Wait: [wreg+status,2]
  6906                           
  6907  17B0                     l115:	
  6908                           ;I2C.c: 34:     while ((SSPSTAT & 0x04) || (SSPCON2 & 0x1F));
  6909                           
  6910  17B0  1683               	bsf	3,5	;RP0=1, select bank1
  6911  17B1  1303               	bcf	3,6	;RP1=0, select bank1
  6912  17B2  1914               	btfsc	20,2	;volatile
  6913  17B3  2FB5               	goto	u2031
  6914  17B4  2FB6               	goto	u2030
  6915  17B5                     u2031:	
  6916  17B5  2FB0               	goto	l115
  6917  17B6                     u2030:	
  6918  17B6                     l1858:	
  6919  17B6  0811               	movf	17,w	;volatile
  6920  17B7  391F               	andlw	31
  6921  17B8  1D03               	btfss	3,2
  6922  17B9  2FBB               	goto	u2041
  6923  17BA  2FBC               	goto	u2040
  6924  17BB                     u2041:	
  6925  17BB  2FB0               	goto	l115
  6926  17BC                     u2040:	
  6927  17BC                     l118:	
  6928  17BC  0008               	return
  6929  17BD                     __end_of_I2C_Master_Wait:	
  6930  007E                     btemp	set	126	;btemp
  6931  007E                     wtemp0	set	126


Data Sizes:
    Strings     14
    Constant    10
    Data        0
    BSS         18
    Persistent  0
    Stack       0

Auto Spaces:
    Space          Size  Autos    Used
    COMMON           14     14      14
    BANK0            80     73      80
    BANK1            80      0      11
    BANK3            96      0       0
    BANK2            96      0       0

Pointer List with Targets:

    sprintf@f	PTR const unsigned char  size(1) Largest target is 3
		 -> STR_5(CODE[3]), 

    sprintf@sp	PTR unsigned char  size(1) Largest target is 4
		 -> Lcd_Write_Int@buffer(BANK0[4]), 

    sprintf@ap	PTR void [1] size(1) Largest target is 2
		 -> ?_sprintf(BANK0[2]), 

    Lcd_Write_String@var	PTR unsigned char  size(2) Largest target is 4
		 -> Lcd_Write_Int@buffer(BANK0[4]), STR_4(CODE[2]), STR_3(CODE[3]), STR_2(CODE[3]), 
		 -> STR_1(CODE[3]), 


Critical Paths under _main in COMMON

    _main->___xxtofl
    _initLCD->_Lcd_Cmd
    _Lcd_Clear->_Lcd_Cmd
    _I2C_Master_Init->___lldiv
    ___xxtofl->_I2C_Master_Read
    ___fltol->___xxtofl
    ___flsub->___xxtofl
    ___flmul->___xxtofl
    _sprintf->___lwmod
    ___lwmod->___lwdiv
    _Lcd_Write_String->_Lcd_Write_Char
    _Lcd_Set_Cursor->_Lcd_Cmd

Critical Paths under _main in BANK0

    _main->___fldiv
    _setup->_I2C_Master_Init
    ___fltol->___flmul
    ___flsub->___fladd
    ___flmul->___flsub
    ___fldiv->___flmul
    _Lcd_Write_Int->_sprintf

Critical Paths under _main in BANK1

    None.

Critical Paths under _main in BANK3

    None.

Critical Paths under _main in BANK2

    None.

Call Graph Tables:

 ---------------------------------------------------------------------------------
 (Depth) Function   	        Calls       Base Space   Used Autos Params    Refs
 ---------------------------------------------------------------------------------
 (0) _main                                                 5     5      0   11856
                                             68 BANK0      5     5      0
                    _I2C_Master_Read
                   _I2C_Master_Start
                    _I2C_Master_Stop
                   _I2C_Master_Write
                     _Lcd_Set_Cursor
                     _Lcd_Write_Char
                      _Lcd_Write_Int
                   _Lcd_Write_String
                            ___fldiv
                            ___flmul
                            ___flsub
                            ___fltol
                           ___xxtofl
                              _setup
 ---------------------------------------------------------------------------------
 (1) _setup                                                0     0      0     456
                    _I2C_Master_Init
                          _Lcd_Clear
                            _initLCD
 ---------------------------------------------------------------------------------
 (2) _initLCD                                              2     2      0      22
                                              3 COMMON     2     2      0
                            _Lcd_Cmd
 ---------------------------------------------------------------------------------
 (2) _Lcd_Clear                                            0     0      0      22
                            _Lcd_Cmd
 ---------------------------------------------------------------------------------
 (2) _I2C_Master_Init                                      8     4      4     412
                                              0 BANK0      8     4      4
                            ___lldiv
 ---------------------------------------------------------------------------------
 (3) ___lldiv                                             14     6      8     314
                                              0 COMMON    14     6      8
 ---------------------------------------------------------------------------------
 (1) ___xxtofl                                            14    10      4     626
                                              6 COMMON     8     4      4
                                              0 BANK0      6     6      0
                    _I2C_Master_Read (ARG)
 ---------------------------------------------------------------------------------
 (1) ___fltol                                             11     7      4     533
                                             42 BANK0     11     7      4
                            ___flmul (ARG)
                            ___flsub (ARG)
                           ___xxtofl (ARG)
 ---------------------------------------------------------------------------------
 (1) ___flsub                                              8     0      8    2485
                                              8 BANK0      8     0      8
                            ___fladd
                           ___xxtofl (ARG)
 ---------------------------------------------------------------------------------
 (2) ___fladd                                             20    12      8    2136
                                              0 COMMON    12     4      8
                                              0 BANK0      8     8      0
 ---------------------------------------------------------------------------------
 (1) ___flmul                                             26    18      8    2873
                                             16 BANK0     26    18      8
                          __Umul8_16
                            ___flsub (ARG)
                           ___xxtofl (ARG)
 ---------------------------------------------------------------------------------
 (2) __Umul8_16                                            9     7      2     799
                                              0 COMMON     9     7      2
 ---------------------------------------------------------------------------------
 (1) ___fldiv                                             26    18      8    1425
                                             42 BANK0     26    18      8
                            ___flmul (ARG)
 ---------------------------------------------------------------------------------
 (1) _Lcd_Write_Int                                        8     8      0    1779
                                             13 BANK0      8     8      0
                   _Lcd_Write_String
                            _sprintf
 ---------------------------------------------------------------------------------
 (2) _sprintf                                             21    18      3    1211
                                              0 BANK0     13    10      3
                            ___lwdiv
                            ___lwmod
 ---------------------------------------------------------------------------------
 (3) ___lwmod                                              6     2      4     311
                                              8 COMMON     6     2      4
                            ___lwdiv (ARG)
 ---------------------------------------------------------------------------------
 (3) ___lwdiv                                              8     4      4     314
                                              0 COMMON     8     4      4
 ---------------------------------------------------------------------------------
 (1) _Lcd_Write_String                                     7     5      2     492
                                              3 COMMON     7     5      2
                     _Lcd_Write_Char
 ---------------------------------------------------------------------------------
 (2) _Lcd_Write_Char                                       3     3      0      22
                                              0 COMMON     3     3      0
 ---------------------------------------------------------------------------------
 (1) _Lcd_Set_Cursor                                       2     1      1     642
                                              3 COMMON     2     1      1
                            _Lcd_Cmd
 ---------------------------------------------------------------------------------
 (3) _Lcd_Cmd                                              3     3      0      22
                                              0 COMMON     3     3      0
 ---------------------------------------------------------------------------------
 (1) _I2C_Master_Write                                     2     0      2     250
                                              0 COMMON     2     0      2
                    _I2C_Master_Wait
 ---------------------------------------------------------------------------------
 (1) _I2C_Master_Stop                                      0     0      0       0
                    _I2C_Master_Wait
 ---------------------------------------------------------------------------------
 (1) _I2C_Master_Start                                     0     0      0       0
                    _I2C_Master_Wait
 ---------------------------------------------------------------------------------
 (1) _I2C_Master_Read                                      6     4      2     273
                                              0 COMMON     6     4      2
                    _I2C_Master_Wait
 ---------------------------------------------------------------------------------
 (2) _I2C_Master_Wait                                      0     0      0       0
 ---------------------------------------------------------------------------------
 Estimated maximum stack depth 3
 ---------------------------------------------------------------------------------

 Call Graph Graphs:

 _main (ROOT)
   _I2C_Master_Read
     _I2C_Master_Wait
   _I2C_Master_Start
     _I2C_Master_Wait
   _I2C_Master_Stop
     _I2C_Master_Wait
   _I2C_Master_Write
     _I2C_Master_Wait
   _Lcd_Set_Cursor
     _Lcd_Cmd
   _Lcd_Write_Char
   _Lcd_Write_Int
     _Lcd_Write_String
       _Lcd_Write_Char
     _sprintf
       ___lwdiv
       ___lwmod
         ___lwdiv (ARG)
   _Lcd_Write_String
     _Lcd_Write_Char
   ___fldiv
     ___flmul (ARG)
       __Umul8_16
       ___flsub (ARG)
         ___fladd
         ___xxtofl (ARG)
           _I2C_Master_Read (ARG)
             _I2C_Master_Wait
       ___xxtofl (ARG)
         _I2C_Master_Read (ARG)
           _I2C_Master_Wait
   ___flmul
     __Umul8_16
     ___flsub (ARG)
       ___fladd
       ___xxtofl (ARG)
         _I2C_Master_Read (ARG)
           _I2C_Master_Wait
     ___xxtofl (ARG)
       _I2C_Master_Read (ARG)
         _I2C_Master_Wait
   ___flsub
     ___fladd
     ___xxtofl (ARG)
       _I2C_Master_Read (ARG)
         _I2C_Master_Wait
   ___fltol
     ___flmul (ARG)
       __Umul8_16
       ___flsub (ARG)
         ___fladd
         ___xxtofl (ARG)
           _I2C_Master_Read (ARG)
             _I2C_Master_Wait
       ___xxtofl (ARG)
         _I2C_Master_Read (ARG)
           _I2C_Master_Wait
     ___flsub (ARG)
       ___fladd
       ___xxtofl (ARG)
         _I2C_Master_Read (ARG)
           _I2C_Master_Wait
     ___xxtofl (ARG)
       _I2C_Master_Read (ARG)
         _I2C_Master_Wait
   ___xxtofl
     _I2C_Master_Read (ARG)
       _I2C_Master_Wait
   _setup
     _I2C_Master_Init
       ___lldiv
     _Lcd_Clear
       _Lcd_Cmd
     _initLCD
       _Lcd_Cmd

 Address spaces:
Name               Size   Autos  Total    Cost      Usage
BITCOMMON            E      0       0       0        0.0%
EEDATA             100      0       0       0        0.0%
NULL                 0      0       0       0        0.0%
CODE                 0      0       0       0        0.0%
COMMON               E      E       E       1      100.0%
BITSFR0              0      0       0       1        0.0%
SFR0                 0      0       0       1        0.0%
BITSFR1              0      0       0       2        0.0%
SFR1                 0      0       0       2        0.0%
STACK                0      0       0       2        0.0%
ABS                  0      0      69       3        0.0%
BITBANK0            50      0       0       4        0.0%
BITSFR3              0      0       0       4        0.0%
SFR3                 0      0       0       4        0.0%
BANK0               50     49      50       5      100.0%
BITSFR2              0      0       0       5        0.0%
SFR2                 0      0       0       5        0.0%
BITBANK1            50      0       0       6        0.0%
BANK1               50      0       B       7       13.8%
BITBANK3            60      0       0       8        0.0%
BANK3               60      0       0       9        0.0%
BITBANK2            60      0       0      10        0.0%
BANK2               60      0       0      11        0.0%
DATA                 0      0      69      12        0.0%


Microchip Technology PIC Macro Assembler V2.10 build 88905656 
Symbol Table                                                                                   Thu Feb 27 12:10:44 2020

             ___fldiv@aexp 0063               ___fldiv@bexp 0062                          pc 0002  
             ___fldiv@sign 005B                __CFG_CP$OFF 0000                         l71 016A  
                       l83 08BB                         _d1 00A4                         _d2 006F  
                       _d3 00A0                         _v1 00AA                         fsr 0004  
      __Umul8_16@word_mpld 0076                        l112 0921                        l121 179C  
                      l130 17AF                        l115 17B0                        l133 08E1  
                      l118 17BC                        l134 08E4                        l135 08E9  
                      l127 17A5                        l151 09EC                        l154 17D0  
                      l162 17FF                        l171 099D                        l324 0A52  
                      l165 17E4                        l157 1793                        l174 0848  
                      l602 0F45                        l284 0131                        l612 0F8D  
                      l606 0F6B                        l623 0FF1                        l615 0FCD  
                      l560 0049                        l624 0FFF                        l481 0AB9  
                      l721 0B38                        l570 095B                        l474 0ACE  
                      l627 086C                        l715 0AF3                        l484 0ACE  
                      l661 0D5B                        l653 0CD9                        l637 0BE7  
                      l581 0DCB                        l717 0B8A                        l734 0881  
                      l639 0D67                        l736 0893                        l728 0B54  
                      l585 0E74                        l729 0B60                        l594 0FFF  
                      l659 0D4B                        l683 0751                        l587 0E49  
                      l677 07E5                        l689 07D9                        _GIE 005F  
             __CFG_CPD$OFF 0000                        _dd1 006A                        _dd3 006D  
                      _od1 006B                        _od3 006E                        fsr0 0004  
                      indf 0000               ___flmul@aexp 0042               ___flmul@bexp 0043  
             ___flmul@sign 003D               ___flmul@temp 0048               ___flmul@prod 0044  
             __CFG_LVP$OFF 0000               ___fltol@exp1 0054                       l2000 0E15  
                     l2010 0E5A                       l2002 0E16                       l2100 0FD7  
                     l2020 0E78                       l2012 0E5E                       l2004 0E2D  
                     l2110 0FEB                       l2102 0FDF                       l2030 0EA1  
                     l2022 0E7D                       l2014 0E5F                       l2006 0E4D  
                     l2120 0877                       l2112 0FFA                       l2104 0FE4  
                     l2040 0EB7                       l2032 0EA5                       l2016 0E6A  
                     l2008 0E58                       l2200 0AA7                       l2122 087B  
                     l2114 0FFE                       l2106 0FE5                       l2050 0F23  
                     l2042 0EC2                       l2034 0EB0                       l2026 0E86  
                     l2018 0E6E                       l2210 0AC3                       l2130 0894  
                     l2140 17EB                       l2300 0C8C                       l2220 0B92  
                     l2124 088A                       l2116 086E                       l2108 0FE9  
                     l2052 0F28                       l2036 0EB2                       l2028 0E9D  
                     l2044 0EC7                       l2212 0849                       l2132 08A2  
                     l2150 17A6                       l2142 17F2                       l2310 0CA9  
                     l2302 0C92                       l2230 0BA7                       l2222 0B98  
                     l2126 088F                       l2118 0870                       l2070 0F72  
                     l2062 0F5B                       l2046 0EDD                       l2054 0F37  
                     l2038 0EB6                       l2214 084D                       l2206 0AAE  
                     l2134 08A7                       l2160 08D2                       l2152 17AB  
                     l2144 17F8                       l2320 0CBE                       l2312 0CAA  
                     l2304 0C9A                       l2240 0BBF                       l2232 0BAF  
                     l2224 0B9C                       l2400 04E9                       l2080 0F80  
                     l2072 0F74                       l2064 0F66                       l2056 0F4D  
                     l2048 0F1D                       l2208 0ABE                       l2136 08AC  
                     l2162 08D7                       l2154 08BC                       l2146 1794  
                     l2170 179D                       l2138 17E6                       l2330 0CE3  
                     l2322 0CC2                       l2314 0CB3                       l2306 0C9C  
                     l2250 0BD4                       l2242 0BC5                       l2234 0BB0  
                     l2226 0B9D                       l2218 0B8B                       l2410 052C  
                     l2090 0F97                       l2082 0F84                       l2074 0F79  
                     l2066 0F6A                       l2058 0F52                       l2164 08DD  
                     l2156 08C1                       l2148 1799                       l2172 17A2  
                     l2340 0D21                       l2332 0CF1                       l2324 0CD6  
                     l2308 0CA5                       l2316 0CB9                       l2260 0BFB  
                     l2252 0BDC                       l2244 0BC9                       l2228 0BA2  
                     l2236 0BB2                       l2420 05B5                       l2412 0548  
                     l2404 04F2                       l2092 0FA5                       l2084 0F8A  
                     l2068 0F6F                       l2076 0F7B                       l2500 0AD2  
                     l2166 08E5                       l2158 08C9                       l2174 082E  
                     l2350 0D51                       l2342 0D2F                       l2334 0CF5  
                     l2318 0CBD                       l2262 0BFF                       l2254 0BDD  
                     l2246 0BCA                       l2238 0BBA                       l2430 0628  
                     l2422 05C5                       l2414 0574                       l2406 0502  
                     l2094 0FA9                       l2078 0F7F                       l2190 0A89  
                     l2182 0A69                       l2502 0AD7                       l1800 0936  
                     l2352 0D55                       l2344 0D3E                       l2336 0D0E  
                     l2328 0CDE                       l2280 0C40                       l2272 0C16  
                     l2248 0BCF                       l2256 0BDF                       l2440 06D5  
                     l2432 0645                       l2424 05E2                       l2416 0590  
                     l2408 050F                       l2360 0485                       l2096 0FC9  
                     l2088 0F92                       l2192 0A8D                       l2184 0A7E  
                     l2176 0A53                       l2520 0B21                       l2512 0B04  
                     l2504 0ADB                       l2600 0428                       l1730 17D7  
                     l1802 093A                       l1810 0957                       l2354 0D57  
                     l2346 0D42                       l2338 0D14                       l2290 0C5E  
                     l2282 0C42                       l2274 0C28                       l2258 0BEF  
                     l2266 0C08                       l2450 0721                       l2442 06FD  
                     l2434 0672                       l2426 05F2                       l2418 05AC  
                     l2370 049C                       l2362 048C                       l2098 0FD2  
                     l2186 0A7F                       l2178 0A60                       l2530 0B58  
                     l2522 0B2F                       l2514 0B09                       l2506 0AEB  
                     l2610 0453                       l2602 0436                       l1740 17CD  
                     l1732 17E1                       l1820 0981                       l1804 0944  
                     l1900 00D0                       l2348 0D4A                       l2284 0C47  
                     l2292 0C67                       l2276 0C30                       l2268 0C0D  
                     l2460 0736                       l2452 0722                       l2444 0706  
                     l2436 0682                       l2428 060F                       l2380 04B8  
                     l2372 04A1                       l2364 0492                       l2188 0A87  
                     l2540 0B82                       l2532 0B62                       l2524 0B3F  
                     l2516 0B16                       l2508 0AFB                       l2612 045D  
                     l2604 043D                       l1734 17BE                       l1726 17D2  
                     l1814 095C                       l1806 094A                       l1910 0112  
                     l1902 00D4                       l2294 0C79                       l2286 0C59  
                     l2278 0C38                       l2470 075B                       l2462 073A  
                     l2454 072B                       l2446 0714                       l2438 06AF  
                     l2390 04CD                       l2382 04BE                       l2374 04A9  
                     l2366 0496                       l2198 0A95                       l2534 0B78  
                     l2526 0B4A                       l2518 0B1D                       l1750 0A11  
                     l1742 09ED                       l1830 09C4                       l1822 099E  
                     l2614 0466                       l2606 0443                       l2550 0159  
                     l1736 17C1                       l1728 17D5                       l1816 095F  
                     l1808 0951                       l1904 00D9                       l1912 011B  
                     l2296 0C7A                       l2288 0C5D                       l2480 0799  
                     l2472 0769                       l2464 074E                       l2448 071D  
                     l2456 0731                       l2392 04D5                       l2384 04C2  
                     l2376 04AB                       l2368 0497                       l2536 0B7D  
                     l2528 0B4E                       l1760 0A44                       l1752 0A1A  
                     l1744 09FD                       l1840 09E6                       l1832 09CE  
                     l1824 09A7                       l2616 046F                       l2608 044B  
                     l2560 01BD                       l2552 0161                       l2544 0132  
                     l1738 17C3                       l1818 097B                       l1770 000E  
                     l1906 0107                       l1914 012D                       l2298 0C88  
                     l2490 07CD                       l2482 07A4                       l2474 076D  
                     l2458 0735                       l2394 04D7                       l2386 04C3  
                     l2378 04B3                       l1930 0D7A                       l1922 0D68  
                     l2538 0B81                       l1754 0A2C                       l1746 0A00  
                     l1762 0A4A                       l1850 091E                       l1842 178D  
                     l1834 09D4                       l1826 09AD                       l2618 0479  
                     l2570 0275                       l2562 01CB                       l2554 01A5  
                     l2546 013F                       l1780 0031                       l1772 0011  
                     l1908 010E                       l2644 0077                       l1860 004D  
                     l2492 07D1                       l2484 07B3                       l2476 0786  
                     l2468 0756                       l2396 04DF                       l2388 04C8  
                     l1932 0D7F                       l1940 0D8F                       l1924 0D6F  
                     l1756 0A3A                       l1748 0A0D                       l1852 091F  
                     l1844 08EA                       l1836 09DA                       l1828 09BB  
                     l2580 0318                       l2572 0296                       l2564 01D0  
                     l2556 01AF                       l2548 0148                       l1782 0037  
                     l1774 0018                       l1766 0006                       l1862 0052  
                     l2494 07D2                       l2486 07BD                       l2478 078C  
                     l2398 04E4                       l1950 0DA9                       l1942 0D97  
                     l1934 0D84                       l1926 0D75                       l1758 0A3B  
                     l1854 0920                       l1846 08EE                       l1838 09E0  
                     l2590 038B                       l2582 0320                       l2574 0300  
                     l2566 0215                       l2558 01B4                       l1856 17B0  
                     l1784 0038                       l1776 001C                       l1768 0008  
                     l1792 0922                       l1880 0092                       l1872 0065  
                     l1864 0058                       l2496 07DD                       l2488 07BF  
                     l1960 0DC0                       l1952 0DAD                       l1944 0D9C  
                     l1936 0D8C                       l1928 0D79                       l1848 08F1  
                     l2592 03AC                       l2584 0327                       l2576 030A  
                     l2568 021F                       l1858 17B6                       l1786 003F  
                     l1778 0020                       l1794 0928                       l1890 009D  
                     l1882 0096                       l1874 0082                       l1866 005F  
                     l1970 0DD9                       l1962 0DC1                       l1954 0DAE  
                     l1946 0DA2                       l1938 0D8D                       l2594 0412  
                     l2586 032D                       l2578 0312                       l1788 0045  
                     l1796 092B                       l1884 009B                       l1876 008A  
                     l1868 0064                       l1980 0DED                       l1972 0DDD  
                     l1956 0DB3                       l1964 0DC3                       l1948 0DA3  
                     l2596 0416                       l2588 0335                       l1798 0932  
                     l1894 00B9                       l1878 008E                       l1990 0E01  
                     l1982 0DF1                       l1974 0DE1                       l1966 0DD1  
                     l1958 0DB8                       l2598 0420                       l1896 00C3  
                     l1992 0E05                       l1984 0DF5                       l1976 0DE5  
                     l1968 0DD5                       l1898 00C9                       l1994 0E09  
                     l1986 0DF9                       l1978 0DE9                       l1996 0E0D  
                     l1988 0DFD                       l1998 0E11                       STR_1 081D  
                     STR_2 0820                       STR_3 0823                       STR_4 0826  
                     STR_5 081A                       u2000 098B                       u2010 099D  
                     u2011 099C                       u2100 011B                       u2020 0901  
                     u2101 011A                       u2030 17B6                       u2110 012D  
                     u2031 17B5                       u2111 012C                       u2040 17BC  
                     u3000 0D21                       u2200 0DD5                       u2120 0D79  
                     u2041 17BB                       u3001 0D20                       u2201 0DD4  
                     u2121 0D78                       u2025 08FC                       u2050 0058  
                     u3010 0D3E                       u2210 0E2D                       u2130 0D7F  
                     u2051 0057                       u3011 0D3D                       u2211 0E2C  
                     u2131 0D7E                       u2060 0092                       u3020 0D55  
                     u3100 04E9                       u2220 0E36                       u2140 0D84  
                     u2061 0091                       u3021 0D54                       u3005 0D1D  
                     u3101 04E8                       u2301 0E8F                       u2221 0E34  
                     u2141 0D83                       u2070 00B8                       u3030 0496  
                     u2310 0EA1                       u2302 0E96                       u2230 0E37  
                     u2150 0DA2                       u2071 00B7                       u3015 0D3A  
                     u3111 053A                       u3031 0495                       u2311 0EA0  
                     u2303 0E9D                       u2215 0E29                       u2151 0DA1  
                     u2080 00C3                       u3112 0541                       u3040 049C  
                     u2400 0F52                       u2320 0EA5                       u2240 0E4D  
                     u2160 0DAD                       u2081 00C2                       u3201 0664  
                     u3121 0556                       u3113 0548                       u3041 049B  
                     u2401 0F51                       u2321 0EA4                       u2241 0E4C  
                     u2161 0DAC                       u2090 00C9                       u3202 066B  
                     u3122 055D                       u3050 04A1                       u2330 0EB6  
                     u2250 0E5E                       u2170 0DB3                       u2091 00C8  
                     u2075 00B4                       u3211 0691                       u3203 0672  
                     u3131 0582                       u3123 0564                       u3051 04A0  
                     u2331 0EB5                       u2251 0E5D                       u2171 0DB2  
                     u3300 0735                       u3220 06BB                       u3212 0698  
                     u3132 0589                       u3060 04C2                       u2500 0FA9  
                     u2420 0F6A                       u2180 0DB8                       u3301 0734  
                     u3213 069F                       u3141 059E                       u3133 0590  
                     u3061 04C1                       u2501 0FA8                       u2421 0F69  
                     u2181 0DB7                       u3310 073A                       u3142 05A5  
                     u3070 04C8                       u2510 0FBA                       u2430 0F6F  
                     u2350 0EDD                       u2270 0E74                       u2190 0DD1  
                     u3311 0739                       u3231 06C7                       u3143 05AC  
                     u3071 04C7                       u2431 0F6E                       u2415 0F5F  
                     u2351 0EDC                       u2271 0E73                       u2191 0DD0  
                     u2600 088F                       u3320 074E                       u3240 06E3  
                     u3232 06CE                       u3080 04CD                       u2520 0FC9  
                     u2440 0F79                       u2280 0E78                       u3400 0AD7  
                     u2601 088E                       u3321 074D                       u3233 06D5  
                     u3225 06B6                       u3161 05D4                       u3081 04CC  
                     u2521 0FC8                       u2441 0F78                       u2361 0EF6  
                     u2353 0ED9                       u2345 0EBB                       u2281 0E77  
                     u2265 0E63                       u3401 0AD6                       u2610 17EB  
                     u3330 0755                       u3162 05DB                       u3090 04E4  
                     u2530 0FD2                       u2450 0F7F                       u2370 0F0A  
                     u2362 0EF7                       u2290 0E7D                       u3410 0ADB  
                     u1810 0A11                       u2611 17EA                       u3331 0754  
                     u3251 06EF                       u3171 0601                       u3163 05E2  
                     u3155 05AE                       u3091 04E3                       u2531 0FD1  
                     u2515 0FB5                       u2451 0F7E                       u2371 0F0B  
                     u2363 0EFC                       u2291 0E7C                       u3411 0ADA  
                     u1811 0A10                       u2620 17F8                       u1900 0031  
                     u3340 075B                       u3252 06F6                       u3172 0608  
                     u2540 0FD7                       u2460 0F84                       u2380 0F28  
                     u2372 0F10                       u2364 0EFD                       u2700 0AAD  
                     u3500 0B58                       u3420 0AFB                       u2621 17F7  
                     u1901 0030                       u3341 075A                       u3253 06FD  
                     u3245 06DE                       u3173 060F                       u2541 0FD6  
                     u2461 0F83                       u2381 0F27                       u2373 0F11  
                     u2365 0F02                       u2701 0AAC                       u3501 0B57  
                     u3421 0AFA                       u1805 0A02                       u2630 08DD  
                     u3350 076D                       u2550 0FE4                       u2470 0F8A  
                     u2390 0F4D                       u2366 0F03                       u3510 0B6D  
                     u1830 0A2C                       u2631 08DC                       u3351 076C  
                     u3191 0637                       u2551 0FE3                       u2471 0F89  
                     u2391 0F4C                       u1831 0A2B                       u1920 0045  
                     u2800 0BEF                       u3360 077C                       u3280 0721  
                     u3192 063E                       u2560 0FE9                       u2480 0F91  
                     u2720 0ABE                       u2640 0A60                       u3520 0B7D  
                     u3440 0B1C                       u1921 0044                       u1905 002D  
                     u2801 0BEE                       u3281 0720                       u3265 06FF  
                     u3193 0645                       u3185 0611                       u2561 0FE8  
                     u2481 0F90                       u2721 0ABD                       u2641 0A5F  
                     u3521 0B7C                       u3441 0B1B                       u1825 0A13  
                     u1930 0928                       u2810 0C0D                       u3370 0799  
                     u2570 0FFE                       u2490 0F97                       u2730 0AC3  
                     u2650 0A77                       u3530 0B81                       u1850 0A4A  
                     u1915 0039                       u1931 0927                       u2811 0C0C  
                     u3371 0798                       u3275 0716                       u2571 0FFD  
                     u2491 0F96                       u2731 0AC2                       u2715 0AB0  
                     u3531 0B80                       u3515 0B68                       u3435 0B0E  
                     u1851 0A49                       u1835 0A28                       u1860 000E  
                     u2820 0C47                       u2740 0B9C                       u2580 087B  
                     u3380 07B3                       u2660 0A8D                       u3460 0B3E  
                     u3540 0320                       u1861 000D                       u2821 0C46  
                     u2741 0B9B                       u2581 087A                       u3381 07B2  
                     u3365 0777                       u2661 0A8C                       u3461 0B3D  
                     u1845 0A3C                       u3541 031F                       u1950 093A  
                     u2910 0CA9                       u2750 0BA2                       u3390 07D1  
                     u2670 0A94                       u1790 09FD                       u3550 0436  
                     u1951 0939                       u2911 0CA8                       u2751 0BA1  
                     u3391 07D0                       u3375 0795                       u3295 0724  
                     u2671 0A93                       u2655 0A72                       u3455 0B30  
                     u1791 09FC                       u3607 09A2                       u3551 0435  
                     u1880 0020                       u1960 0944                       u2760 0BA7  
                     u3480 0B4E                       u3560 0453                       u1881 001F  
                     u1961 0943                       u1945 092C                       u2905 0C9E  
                     u2761 0BA6                       u3385 07AF                       u3481 0B4D  
                     u3617 09B1                       u3561 0452                       u2930 0CBD  
                     u2850 0C5D                       u2770 0BC9                       u2690 0AA6  
                     u3490 0B54                       u1875 0012                       u2931 0CBC  
                     u2851 0C5C                       u2835 0C49                       u2771 0BC8  
                     u2595 0882                       u2691 0AA5                       u3491 0B53  
                     u3475 0B43                       u3627 09BF                       _PEIE 005E  
                     u1980 0957                       u2940 0CC2                       u2780 0BCF  
                     u1981 0956                       u1965 0940                       u2941 0CC1  
                     u2925 0CAC                       u2845 0C52                       u2781 0BCE  
                     u2685 0A96                       u3637 09CC                       u1990 0969  
                     u2950 0CD6                       u2870 0C79                       u2790 0BD4  
                     u3647 17DC                       u1895 0021                       u1975 094B  
                     u2951 0CD5                       u2871 0C78                       u2791 0BD3  
                     u2960 0CDD                       u2880 0C92                       u3657 17C8  
                     u2961 0CDC                       u2881 0C91                       u2865 0C60  
                     u3577 01AB                       u2970 0CE3                       u2890 0C9A  
                     u2971 0CE2                       u2891 0C99                       u2875 0C75  
                     u3587 01D6                       u2980 0CF5                       u2981 0CF4  
                     u3597 021B                       u2990 0D04                       u2995 0CFF  
                     _d1_1 0069                       _d3_1 006C        Lcd_Write_String@var 0073  
             __CFG_WRT$OFF 0000          ?_Lcd_Write_String 0073                       _int1 00A8  
                     _main 0132                       btemp 007E                       start 0000  
       ??_Lcd_Write_String 0075              __CFG_IESO$OFF 0000            ___fldiv@new_exp 005C  
          __end_of_Lcd_Cmd 17D1           ?_I2C_Master_Init 0020           ?_I2C_Master_Read 0070  
         ?_I2C_Master_Wait 0070           ?_I2C_Master_Stop 0070              ___fltol@sign1 0053  
          __end_of___fladd 1000                      ?_main 0070            __end_of___fldiv 0D68  
            __CFG_WDTE$OFF 0000            __end_of___flmul 07E6            __end_of___flsub 086D  
          __end_of___fltol 0ACF                      _ANSEL 0188            __end_of___lldiv 0A53  
          __end_of___lwdiv 004A            __end_of___lwmod 095C                      _PORTA 0005  
                    _PORTB 0006                      _PORTD 0008    __size_of_Lcd_Set_Cursor 001B  
                    _TRISA 0085                      _TRISB 0086                      _TRISD 0088  
                    _SSPIE 0463                      _SSPIF 0063             __CFG_FCMEN$OFF 0000  
          __end_of_initLCD 09ED                      _dent1 00A9            __end_of_dpowers 081A  
                    _setup 0894             __CFG_BOREN$OFF 0000                      pclath 000A  
                    status 0003                      wtemp0 007E            __end_of_sprintf 0132  
           __CFG_MCLRE$OFF 0000            __initialization 07E6               __end_of_main 0485  
                   ??_main 0064         __size_of_Lcd_Clear 0007          ?_I2C_Master_Start 0070  
        ?_I2C_Master_Write 0070         ??_I2C_Master_Start 0070         ??_I2C_Master_Write 0072  
                   ?_setup 0070                     _ANSELH 0189                  ??_Lcd_Cmd 0070  
  __size_of_Lcd_Write_Char 0014                     _SSPADD 0093                     _TRISC3 043B  
                   _TRISC4 043C                     _SSPCON 0014                     _SSPBUF 0013  
         __end_of___xxtofl 0B8B             __CFG_PWRTE$OFF 0000                  ??___fladd 0020  
                ??___fldiv 0052                  ??___flmul 0038                  ??___flsub 007E  
                ??___fltol 004E                  ??___lldiv 0078                  ??___lwdiv 0074  
                ??___lwmod 007C      __end_of_Lcd_Write_Int 0849                  ??_initLCD 0073  
       __size_of__Umul8_16 0027                  ??_sprintf 0023               ___xxtofl@arg 0022  
             ___xxtofl@exp 0021               ___xxtofl@val 0076    __end_of__initialization 07FC  
        __end_of_Lcd_Clear 1794                 ___fltol@f1 004A             __pcstackCOMMON 0070  
            __end_of_setup 08BC             _Lcd_Set_Cursor 17E5                    ??_setup 007E  
               __pbssBANK0 0069                 __pbssBANK1 00A0          __end_of__Umul8_16 0894  
               __pmaintext 0132  __size_of_Lcd_Write_String 0042     __end_of_Lcd_Set_Cursor 1800  
                ?___xxtofl 0076                    _SSPCON2 0091                    _SSPSTAT 0094  
               __stringtab 0800             _Lcd_Write_Char 17D1                    _Lcd_Cmd 17BD  
                  ___fladd 0D68                    ___fldiv 0B8B                    ___flmul 0485  
                  ___flsub 0849                    ___fltol 0A53                    ___lldiv 09ED  
                  ___lwdiv 0006                    ___lwmod 0922            ?_Lcd_Set_Cursor 0073  
                  __ptext1 0894                    __ptext2 099E                    __ptext3 178D  
                  __ptext4 08EA                    __ptext5 09ED                    __ptext6 0ACF  
                  __ptext7 0A53                    __ptext8 0849                    __ptext9 0D68  
                  _initLCD 099E                    _dpowers 0810                 ??___xxtofl 007A  
 __size_of_I2C_Master_Init 0038   __size_of_I2C_Master_Read 002E   __size_of_I2C_Master_Wait 000D  
 __size_of_I2C_Master_Stop 0009                    _sprintf 004A     __end_of_Lcd_Write_Char 17E5  
     end_of_initialization 07FC          Lcd_Write_Char@var 0072  __size_of_I2C_Master_Start 0009  
__size_of_I2C_Master_Write 000A            ___lldiv@divisor 0070            ___lldiv@counter 007D  
         I2C_Master_Init@c 0020           I2C_Master_Read@a 0070                  _PORTBbits 0006  
              ___fladd@grs 007B              ___xxtofl@sign 0020                  _TRISCbits 0087  
              ___fldiv@grs 005E                ___fldiv@rem 0057            ?_Lcd_Write_Char 0070  
        Lcd_Write_String@i 0078                ___flmul@grs 003E                  _Lcd_Clear 178D  
         _Lcd_Write_String 095C        start_initialization 07E6          ??_I2C_Master_Init 0024  
        ??_I2C_Master_Read 0072          ??_I2C_Master_Wait 0070          ??_I2C_Master_Stop 0070  
 __CFG_FOSC$INTRC_NOCLKOUT 0000     __size_of_Lcd_Write_Int 001E                 ?_Lcd_Clear 0070  
                __Umul8_16 086D                  ___fladd@a 0074                  ___fladd@b 0070  
                ___fldiv@a 004A                  ___fldiv@b 004E                  ___flmul@a 0034  
                ___flmul@b 0030                  ___flsub@a 0028                  ___flsub@b 002C  
                ___latbits 0002              __pcstackBANK0 0020          __size_of___xxtofl 00BC  
                 ?_Lcd_Cmd 0070                sprintf@flag 0027                sprintf@prec 0028  
         _I2C_Master_Start 1794           _I2C_Master_Write 17A6           ___lwdiv@dividend 0072  
         ??_Lcd_Set_Cursor 0074                   ?___fladd 0070                   ?___fldiv 004A  
                 ?___flmul 0030                   ?___flsub 0028                   ?___fltol 004A  
                 ?___lldiv 0070                 ?__Umul8_16 0070                   ?___lwdiv 0070  
                 ?___lwmod 0078                  __pstrings 0800                   ?_initLCD 0070  
            _Lcd_Write_Int 082B           ___lwdiv@quotient 0075                   ?_sprintf 0020  
           __size_of_setup 0028                ??_Lcd_Clear 0073                __stringbase 080F  
           ?_Lcd_Write_Int 0070           ??_Lcd_Write_Char 0070        I2C_Master_Read@temp 0074  
 __end_of_Lcd_Write_String 099E           __size_of_Lcd_Cmd 0014                ??__Umul8_16 0072  
         __size_of___fladd 0298           __size_of___fldiv 01DD           __size_of___flmul 0361  
         __size_of___flsub 0024           __size_of___fltol 007C           __size_of___lldiv 0066  
           Lcd_Cmd@command 0072           __size_of___lwdiv 0044           __size_of___lwmod 003A  
       __end_of__stringtab 0810                 sprintf@val 0029            _I2C_Master_Init 08EA  
          _I2C_Master_Read 08BC           __size_of_initLCD 004F                   ___xxtofl 0ACF  
          _I2C_Master_Wait 17B0            _I2C_Master_Stop 179D            ___lwdiv@divisor 0070  
          ___lwdiv@counter 0077                   __ptext10 0485                   __ptext11 086D  
                 __ptext20 17BD                   __ptext12 0B8B                   __ptext21 17A6  
                 __ptext13 082B                   __ptext22 179D                   __ptext14 004A  
                 __ptext23 1794                   __ptext15 0922                   __ptext24 08BC  
                 __ptext16 0006                   __ptext25 17B0                   __ptext17 095C  
                 __ptext18 17D1                   __ptext19 17E5          __CFG_BOR4V$BOR40V 0000  
         __size_of_sprintf 00E8              __size_of_main 0353            ??_Lcd_Write_Int 002D  
 __end_of_I2C_Master_Start 179D   __end_of_I2C_Master_Write 17B0        Lcd_Write_Int@buffer 0030  
      Lcd_Write_Int@numero 0034                  sprintf@ap 0026                  sprintf@sp 002B  
         ___lwmod@dividend 007A           ___lldiv@dividend 0074                  stringcode 080A  
  __end_of_I2C_Master_Init 0922    __end_of_I2C_Master_Read 08EA    __end_of_I2C_Master_Wait 17BD  
  __end_of_I2C_Master_Stop 17A6         Lcd_Set_Cursor@posx 0074         Lcd_Set_Cursor@posy 0073  
   __Umul8_16@multiplicand 0070                   sprintf@c 002C                   sprintf@f 0020  
         ___lldiv@quotient 0079          I2C_Master_Write@d 0070            ___lwmod@divisor 0078  
          ___lwmod@counter 007D                   stringdir 080A                   stringtab 0800  
              _SSPCON2bits 0091              ___fladd@signs 0078               ___fladd@aexp 0079  
             ___fladd@bexp 007A       __Umul8_16@multiplier 0078          __Umul8_16@product 0074  
